(lp0
(dp1
S'isAbstract'
p2
I0
sS'classification'
p3
S'title'
p4
sS'cap1DicWordNumPer'
p5
F0.7142857142857143
sS'isPubNum'
p6
I0
sS'pubNumPer'
p7
F0.0
sS'isMayName'
p8
I0
sS'dictWordNumPer'
p9
F0.5833333333333334
sS'linePos'
p10
S'0'
p11
sS'isState'
p12
I0
sS'addrNumPer'
p13
F0.0
sS'isPage'
p14
I0
sS'digitNumPer'
p15
F0.0
sS'isPostCode'
p16
I0
sS'isIntro'
p17
I0
sS'singleDigitNumPer'
p18
F0.025974025974025976
sS'z_origin'
p19
S'"<title>Proceedings of the 53rd Annual Meeting of the Association for Computational Linguistics</title>::line_number::0"'
p20
sS'isKeyWord'
p21
I0
sS'dateNumPer'
p22
F0.0
sS'nonDictWordNumPer'
p23
F0.41666666666666663
sS'isSingleCap'
p24
I0
sS'noteNumPer'
p25
F0.08333333333333333
sS'isAffi'
p26
I0
sS'isAddr'
p27
I0
sS'degreeNumPer'
p28
F0.0
sS'isURL'
p29
I0
sS'isPhone'
p30
I0
sS'affiNumPer'
p31
F0.0
sS'isDegree'
p32
I0
sS'isMonth'
p33
I0
sS'isPrep'
p34
I7
sS'phoneNumPer'
p35
F0.0
sS'isCity'
p36
I0
sS'z_pageNo'
p37
I0
sS'isNote'
p38
I1
sS'cap1NonDicWordNumPer'
p39
F0.2857142857142857
sS'isEmail'
p40
I0
sS'isCountry'
p41
I0
sa(dp42
g2
I0
sg3
S'title'
p43
sg5
F0.7142857142857143
sg6
I0
sg7
F0.0
sg8
I0
sg9
F0.5
sg10
S'1'
p44
sg12
I0
sg13
F0.0
sg14
I1
sg15
F0.0
sg16
I0
sg17
I0
sg18
F0.05333333333333334
sg19
S'"<title>and the 7th International Joint Conference on Natural Language Processing, pages 1\xa8C10,</title>::line_number::1"'
p45
sg21
I0
sg22
F0.0
sg23
F0.5
sg24
I1
sg25
F0.14285714285714285
sg26
I0
sg27
I0
sg28
F0.0
sg29
I0
sg30
I0
sg31
F0.0
sg32
I0
sg33
I0
sg34
I4
sg35
F0.0
sg36
I0
sg37
I0
sg38
I2
sg39
F0.2857142857142857
sg40
I0
sg41
I0
sa(dp46
g2
I0
sg3
S'title'
p47
sg5
F0.8571428571428571
sg6
I0
sg7
F0.0
sg8
I0
sg9
F0.46153846153846156
sg10
S'2'
p48
sg12
I0
sg13
F0.0
sg14
I0
sg15
F0.0
sg16
I0
sg17
I0
sg18
F0.17142857142857143
sg19
S'"<title>Beijing, China, July 26-31, 2015. c2015 Association for Computational Linguistics</title>::line_number::2"'
p49
sg21
I0
sg22
F0.07692307692307693
sg23
F0.5384615384615384
sg24
I0
sg25
F0.0
sg26
I0
sg27
I0
sg28
F0.0
sg29
I0
sg30
I0
sg31
F0.0
sg32
I0
sg33
I1
sg34
I5
sg35
F0.0
sg36
I0
sg37
I0
sg38
I0
sg39
F0.1428571428571429
sg40
I0
sg41
I1
sa(dp50
g2
I0
sg3
S'title'
p51
sg5
F0.14285714285714285
sg6
I0
sg7
F0.0
sg8
I0
sg9
F0.14285714285714285
sg10
S'3'
p52
sg12
I0
sg13
F0.0
sg14
I0
sg15
F0.0
sg16
I0
sg17
I0
sg18
F0.0
sg19
S'"<title>On Using Very Large Target Vocabulary for</title>::line_number::3"'
p53
sg21
I0
sg22
F0.0
sg23
F0.8571428571428572
sg24
I0
sg25
F0.0
sg26
I0
sg27
I0
sg28
F0.0
sg29
I0
sg30
I0
sg31
F0.0
sg32
I0
sg33
I0
sg34
I1
sg35
F0.0
sg36
I0
sg37
I0
sg38
I0
sg39
F0.8571428571428572
sg40
I0
sg41
I0
sa(dp54
g2
I0
sg3
S'title'
p55
sg5
F0.5
sg6
I0
sg7
F0.0
sg8
I0
sg9
F0.6666666666666666
sg10
S'4'
p56
sg12
I0
sg13
F0.0
sg14
I0
sg15
F0.0
sg16
I0
sg17
I0
sg18
F0.0
sg19
S'"<title>Neural Machine Translation</title>::line_number::4"'
p57
sg21
I0
sg22
F0.0
sg23
F0.33333333333333337
sg24
I0
sg25
F0.0
sg26
I0
sg27
I0
sg28
F0.0
sg29
I0
sg30
I0
sg31
F0.0
sg32
I0
sg33
I0
sg34
I2
sg35
F0.0
sg36
I0
sg37
I0
sg38
I0
sg39
F0.5
sg40
I0
sg41
I0
sa(dp58
g2
I0
sg3
S'title'
p59
sg5
F0.4
sg6
I0
sg7
F0.0
sg8
I2
sg9
F0.5
sg10
S'5'
p60
sg12
I0
sg13
F0.0
sg14
I0
sg15
F0.0
sg16
I0
sg17
I0
sg18
F0.0
sg19
S'"<title>Sebastien Jean Kyunghyun Cho</title>::line_number::5"'
p61
sg21
I0
sg22
F0.0
sg23
F0.5
sg24
I0
sg25
F0.0
sg26
I0
sg27
I0
sg28
F0.0
sg29
I0
sg30
I0
sg31
F0.0
sg32
I0
sg33
I0
sg34
I0
sg35
F0.0
sg36
I0
sg37
I0
sg38
I0
sg39
F0.6
sg40
I0
sg41
I0
sa(dp62
g2
I0
sg3
S'title'
p63
sg5
F0.3333333333333333
sg6
I0
sg7
F0.0
sg8
I1
sg9
F0.5
sg10
S'6'
p64
sg12
I0
sg13
F0.0
sg14
I0
sg15
F0.0
sg16
I0
sg17
I0
sg18
F0.0
sg19
S'"<title>Roland Memisevic</title>::line_number::6"'
p65
sg21
I0
sg22
F0.0
sg23
F0.5
sg24
I0
sg25
F0.0
sg26
I0
sg27
I0
sg28
F0.0
sg29
I0
sg30
I0
sg31
F0.0
sg32
I0
sg33
I0
sg34
I0
sg35
F0.0
sg36
I0
sg37
I0
sg38
I0
sg39
F0.6666666666666667
sg40
I0
sg41
I0
sa(dp66
g2
I0
sg3
S'title'
p67
sg5
F0.0
sg6
I0
sg7
F0.0
sg8
I1
sg9
F0.3333333333333333
sg10
S'7'
p68
sg12
I0
sg13
F0.0
sg14
I0
sg15
F0.0
sg16
I0
sg17
I0
sg18
F0.0
sg19
S'"<title>Universite de Montreal</title>::line_number::7"'
p69
sg21
I0
sg22
F0.0
sg23
F0.6666666666666667
sg24
I0
sg25
F0.0
sg26
I0
sg27
I0
sg28
F0.0
sg29
I0
sg30
I0
sg31
F0.0
sg32
I0
sg33
I0
sg34
I0
sg35
F0.0
sg36
I0
sg37
I0
sg38
I0
sg39
F1.0
sg40
I0
sg41
I0
sa(dp70
g2
I0
sg3
S'title'
p71
sg5
F0.0
sg6
I0
sg7
F0.0
sg8
I0
sg9
F0.0
sg10
S'8'
p72
sg12
I0
sg13
F0.0
sg14
I0
sg15
F0.0
sg16
I0
sg17
I0
sg18
F0.0
sg19
S'"<title>Yoshua Bengio</title>::line_number::8"'
p73
sg21
I0
sg22
F0.0
sg23
F1.0
sg24
I0
sg25
F0.0
sg26
I0
sg27
I0
sg28
F0.0
sg29
I0
sg30
I0
sg31
F0.0
sg32
I0
sg33
I0
sg34
I0
sg35
F0.0
sg36
I0
sg37
I0
sg38
I0
sg39
F1.0
sg40
I0
sg41
I0
sa(dp74
g2
I0
sg3
S'title'
p75
sg5
F0.0
sg6
I0
sg7
F0.0
sg8
I1
sg9
F0.3333333333333333
sg10
S'9'
p76
sg12
I0
sg13
F0.0
sg14
I0
sg15
F0.0
sg16
I0
sg17
I0
sg18
F0.0
sg19
S'"<title>Universite de Montreal</title>::line_number::9"'
p77
sg21
I0
sg22
F0.0
sg23
F0.6666666666666667
sg24
I0
sg25
F0.0
sg26
I0
sg27
I0
sg28
F0.0
sg29
I0
sg30
I0
sg31
F0.0
sg32
I0
sg33
I0
sg34
I0
sg35
F0.0
sg36
I0
sg37
I0
sg38
I0
sg39
F1.0
sg40
I0
sg41
I0
sa(dp78
g2
I0
sg3
S'title'
p79
sg5
F0.0
sg6
I0
sg7
F0.0
sg8
I0
sg9
F0.0
sg10
S'10'
p80
sg12
I0
sg13
F0.0
sg14
I0
sg15
F0.0
sg16
I0
sg17
I0
sg18
F0.0
sg19
S'"<title>CIFAR Senior Fellow</title>::line_number::10"'
p81
sg21
I0
sg22
F0.0
sg23
F1.0
sg24
I0
sg25
F0.0
sg26
I0
sg27
I0
sg28
F0.0
sg29
I0
sg30
I0
sg31
F0.0
sg32
I0
sg33
I0
sg34
I0
sg35
F0.0
sg36
I0
sg37
I0
sg38
I0
sg39
F1.0
sg40
I0
sg41
I0
sa.