(lp0
(dp1
S'pre4pubnum'
p2
F0.5
sS'next1page'
p3
I0
sS'pre2keyword'
p4
I0
sS'next3address'
p5
I0
sS'pre3affiliation'
p6
I0
sS'pre1email'
p7
F0.5
sS'next3intro'
p8
I0
sS'pre4page'
p9
I0
sS'isMayName'
p10
I3
sS'dictWordNumPer'
p11
F0.5111111111111111
sS'next4phone'
p12
I0
sS'z_origin'
p13
S'"<degree> A THESIS PROPOSAL Presented to The Academic Faculty In Partial Fulfillment of the Requirements for the Degree Doctor of Philosophy in Information and Computer Science The Committee: Dr. Ashok Goel (Advisor) Dr. Richard Catrambone (Psy) Dr. T. Govindaraj (ISyE) Dr. Janet Kolodner Dr. Ashwin Ram  </degree>::line_number::4"'
p14
sS'isPostCode'
p15
I0
sS'isIntro'
p16
I0
sS'next1author'
p17
I0
sS'singleDigitNumPer'
p18
F0.0
sS'isKeyWord'
p19
I0
sS'dateNumPer'
p20
F0.0
sS'pubNumPer'
p21
F0.0
sS'pre3note'
p22
I0
sS'next3phone'
p23
I0
sS'pre2note'
p24
I0
sS'next1address'
p25
I0
sS'pre1affiliation'
p26
I0
sS'pre2address'
p27
I0
sS'pre1abstract'
p28
I0
sS'next3abstract'
p29
I0
sS'pre2affiliation'
p30
I0
sS'pre3title'
p31
F0.5
sS'isPhone'
p32
I0
sS'pre3pubnum'
p33
I0
sS'z_pageNo'
p34
I1
sS'pre3date'
p35
I0
sS'next4title'
p36
I0
sS'next3email'
p37
I0
sS'isEmail'
p38
I0
sS'next1abstract'
p39
I0
sS'pre2phone'
p40
I0
sS'pre4affiliation'
p41
I0
sS'pre2intro'
p42
I0
sS'next2date'
p43
F0.5
sS'pre3intro'
p44
I0
sS'next2note'
p45
I0
sS'next3title'
p46
I0
sS'next3keyword'
p47
I0
sS'pre2pubnum'
p48
I0
sS'next4affiliation'
p49
I0
sS'next2pubnum'
p50
I0
sS'pre4note'
p51
I0
sS'isPubNum'
p52
I0
sS'digitNumPer'
p53
F0.0
sS'pre3web'
p54
I0
sS'next4pubnum'
p55
I0
sS'next4degree'
p56
I0
sS'isPage'
p57
I0
sS'pre3author'
p58
I0
sS'pre4web'
p59
I0
sS'next1note'
p60
I0
sS'pre3abstract'
p61
I0
sS'degreeNumPer'
p62
F0.2
sS'pre1degree'
p63
I0
sS'pre4abstract'
p64
I0
sS'pre2degree'
p65
I0
sS'next3degree'
p66
I0
sS'next4abstract'
p67
I0
sS'next1keyword'
p68
I0
sS'pre3phone'
p69
I0
sS'pre1note'
p70
I0
sS'pre4keyword'
p71
I0
sS'isPrep'
p72
I8
sS'pre4address'
p73
I0
sS'pre2date'
p74
I0
sS'next2title'
p75
I0
sS'pre3address'
p76
I0
sS'next1pubnum'
p77
I0
sS'next2author'
p78
I0
sS'pre2web'
p79
I0
sS'next1email'
p80
I0
sS'classification'
p81
S'degree'
p82
sS'pre1web'
p83
I0
sS'pre4email'
p84
I0
sS'pre1keyword'
p85
I0
sS'pre4date'
p86
I0
sS'next1affiliation'
p87
F0.5
sS'next2degree'
p88
I0
sS'pre1phone'
p89
I0
sS'linePos'
p90
S'4'
p91
sS'isState'
p92
I0
sS'pre2abstract'
p93
I0
sS'next1intro'
p94
I0
sS'next2intro'
p95
I0
sS'pre3degree'
p96
I0
sS'pre1author'
p97
I0
sS'next3page'
p98
I0
sS'next3web'
p99
I0
sS'next4date'
p100
I0
sS'nonDictWordNumPer'
p101
F0.48888888888888893
sS'noteNumPer'
p102
F0.044444444444444446
sS'isAddr'
p103
I0
sS'pre2author'
p104
F0.5
sS'isURL'
p105
I0
sS'next2page'
p106
I0
sS'next3pubnum'
p107
I0
sS'next1degree'
p108
I0
sS'pre1date'
p109
I0
sS'pre4phone'
p110
I0
sS'isMonth'
p111
I0
sS'next4intro'
p112
I0
sS'affiNumPer'
p113
F0.0
sS'next2affiliation'
p114
I0
sS'next4author'
p115
I0
sS'next4note'
p116
I0
sS'pre1pubnum'
p117
I0
sS'isAbstract'
p118
I0
sS'isCity'
p119
I0
sS'next2address'
p120
I0
sS'next2keyword'
p121
I0
sS'next3note'
p122
F0.5
sS'next3affiliation'
p123
I0
sS'pre4degree'
p124
I0
sS'next4email'
p125
I0
sS'cap1DicWordNumPer'
p126
F0.5714285714285714
sS'next1web'
p127
I0
sS'next2email'
p128
I0
sS'next2web'
p129
I0
sS'addrNumPer'
p130
F0.0
sS'pre3page'
p131
I0
sS'next3author'
p132
I0
sS'pre1address'
p133
I0
sS'pre2email'
p134
I0
sS'next4web'
p135
I0
sS'pre4author'
p136
I0
sS'pre1title'
p137
I0
sS'next4page'
p138
F0.5
sS'isSingleCap'
p139
I2
sS'next4keyword'
p140
I0
sS'isAffi'
p141
I0
sS'next1phone'
p142
I0
sS'pre4intro'
p143
I0
sS'pre3keyword'
p144
I0
sS'pre2title'
p145
I0
sS'pre3email'
p146
I0
sS'pre4title'
p147
I0
sS'next3date'
p148
I0
sS'next2phone'
p149
I0
sS'next1date'
p150
I0
sS'phoneNumPer'
p151
F0.0
sS'pre1intro'
p152
I0
sS'pre2page'
p153
I0
sS'next2abstract'
p154
I0
sS'next4address'
p155
I0
sS'next1title'
p156
I0
sS'pre1page'
p157
I0
sS'isNote'
p158
I2
sS'cap1NonDicWordNumPer'
p159
F0.4285714285714286
sS'isCountry'
p160
I0
sa(dp161
S'pre4pubnum'
p162
I0
sS'next1page'
p163
F0.5
sS'pre2keyword'
p164
I0
sS'next3address'
p165
I0
sS'pre3affiliation'
p166
I0
sS'pre1email'
p167
I0
sS'next3intro'
p168
I0
sS'pre4page'
p169
I0
sg10
I0
sg11
F0.0
sS'next4phone'
p170
I0
sg13
S'"<degree> APPROVED BY SUPERVISORY COMMITTEE:  </degree>::line_number::1"'
p171
sg15
I0
sg16
I0
sS'next1author'
p172
I0
sg18
F0.0
sg19
I0
sg20
F0.0
sg21
F0.0
sS'pre3note'
p173
I0
sS'next3phone'
p174
I0
sS'pre2note'
p175
I0
sS'next1address'
p176
I0
sS'pre1affiliation'
p177
I0
sS'pre2address'
p178
I0
sS'pre1abstract'
p179
I0
sS'next3abstract'
p180
I0
sS'pre2affiliation'
p181
I0
sS'pre3title'
p182
I0
sg32
I0
sS'pre3pubnum'
p183
I0
sg34
I14
sS'pre3date'
p184
I0
sS'next4title'
p185
I0
sS'next3email'
p186
I0
sg38
I0
sS'next1abstract'
p187
I0
sS'pre2phone'
p188
I0
sS'pre4affiliation'
p189
I0
sS'pre2intro'
p190
I0
sS'next2date'
p191
I0
sS'pre3intro'
p192
I0
sS'next2note'
p193
I0
sS'next3title'
p194
I0
sS'next3keyword'
p195
I0
sS'pre2pubnum'
p196
I0
sS'next4affiliation'
p197
I0
sS'next2pubnum'
p198
I0
sS'pre4note'
p199
I0
sg52
I0
sg53
F0.0
sS'pre3web'
p200
I0
sS'next4pubnum'
p201
I0
sS'next4degree'
p202
I0
sg57
I0
sS'pre3author'
p203
I0
sS'pre4web'
p204
I0
sS'next1note'
p205
I0
sS'pre3abstract'
p206
I0
sg62
F0.0
sS'pre1degree'
p207
I0
sS'pre4abstract'
p208
I0
sS'pre2degree'
p209
I0
sS'next3degree'
p210
I0
sS'next4abstract'
p211
I0
sS'next1keyword'
p212
I0
sS'pre3phone'
p213
I0
sS'pre1note'
p214
I0
sS'pre4keyword'
p215
I0
sg72
I0
sS'pre4address'
p216
I0
sS'pre2date'
p217
I0
sS'next2title'
p218
I0
sS'pre3address'
p219
I0
sS'next1pubnum'
p220
I0
sS'next2author'
p221
I0
sS'pre2web'
p222
I0
sS'next1email'
p223
I0
sg81
S'degree'
p224
sS'pre1web'
p225
I0
sS'pre4email'
p226
I0
sS'pre1keyword'
p227
I0
sS'pre4date'
p228
I0
sS'next1affiliation'
p229
I0
sS'next2degree'
p230
I0
sS'pre1phone'
p231
I0
sg90
S'1'
p232
sg92
I0
sS'pre2abstract'
p233
I0
sS'next1intro'
p234
I0
sS'next2intro'
p235
I0
sS'pre3degree'
p236
I0
sS'pre1author'
p237
I0
sS'next3page'
p238
I0
sS'next3web'
p239
I0
sS'next4date'
p240
I0
sg101
F1.0
sg102
F0.0
sg103
I0
sS'pre2author'
p241
I0
sg105
I0
sS'next2page'
p242
I0
sS'next3pubnum'
p243
I0
sS'next1degree'
p244
I0
sS'pre1date'
p245
I0
sS'pre4phone'
p246
I0
sg111
I0
sS'next4intro'
p247
I0
sg113
F0.0
sS'next2affiliation'
p248
I0
sS'next4author'
p249
I0
sS'next4note'
p250
I0
sS'pre1pubnum'
p251
I0
sg118
I0
sg119
I0
sS'next2address'
p252
I0
sS'next2keyword'
p253
I0
sS'next3note'
p254
I0
sS'next3affiliation'
p255
I0
sS'pre4degree'
p256
I0
sS'next4email'
p257
I0
sg126
F0.0
sS'next1web'
p258
I0
sS'next2email'
p259
I0
sS'next2web'
p260
I0
sg130
F0.0
sS'pre3page'
p261
I0
sS'next3author'
p262
I0
sS'pre1address'
p263
I0
sS'pre2email'
p264
I0
sS'next4web'
p265
I0
sS'pre4author'
p266
I0
sS'pre1title'
p267
F0.5
sS'next4page'
p268
I0
sg139
I0
sS'next4keyword'
p269
I0
sg141
I0
sS'next1phone'
p270
I0
sS'pre4intro'
p271
I0
sS'pre3keyword'
p272
I0
sS'pre2title'
p273
I0
sS'pre3email'
p274
I0
sS'pre4title'
p275
I0
sS'next3date'
p276
I0
sS'next2phone'
p277
I0
sS'next1date'
p278
I0
sg151
F0.0
sS'pre1intro'
p279
I0
sS'pre2page'
p280
I0
sS'next2abstract'
p281
I0
sS'next4address'
p282
I0
sS'next1title'
p283
I0
sS'pre1page'
p284
I0
sg158
I0
sg159
F1.0
sg160
I0
sa(dp285
S'pre4pubnum'
p286
I0
sS'next1page'
p287
I0
sS'pre2keyword'
p288
I0
sS'next3address'
p289
F0.5
sS'pre3affiliation'
p290
I0
sS'pre1email'
p291
I0
sS'next3intro'
p292
I0
sS'pre4page'
p293
I0
sg10
I0
sg11
F1.0
sS'next4phone'
p294
I0
sg13
S'"<degree> Thesis Proposal  </degree>::line_number::1"'
p295
sg15
I0
sg16
I0
sS'next1author'
p296
F0.5
sg18
F0.0
sg19
I0
sg20
F0.0
sg21
F0.0
sS'pre3note'
p297
I0
sS'next3phone'
p298
I0
sS'pre2note'
p299
I0
sS'next1address'
p300
I0
sS'pre1affiliation'
p301
I0
sS'pre2address'
p302
I0
sS'pre1abstract'
p303
I0
sS'next3abstract'
p304
I0
sS'pre2affiliation'
p305
I0
sS'pre3title'
p306
I0
sg32
I0
sS'pre3pubnum'
p307
I0
sg34
I24
sS'pre3date'
p308
I0
sS'next4title'
p309
I0
sS'next3email'
p310
I0
sg38
I0
sS'next1abstract'
p311
I0
sS'pre2phone'
p312
I0
sS'pre4affiliation'
p313
I0
sS'pre2intro'
p314
I0
sS'next2date'
p315
I0
sS'pre3intro'
p316
I0
sS'next2note'
p317
I0
sS'next3title'
p318
I0
sS'next3keyword'
p319
I0
sS'pre2pubnum'
p320
I0
sS'next4affiliation'
p321
I0
sS'next2pubnum'
p322
I0
sS'pre4note'
p323
I0
sg52
I0
sg53
F0.0
sS'pre3web'
p324
I0
sS'next4pubnum'
p325
I0
sS'next4degree'
p326
I0
sg57
I0
sS'pre3author'
p327
I0
sS'pre4web'
p328
I0
sS'next1note'
p329
I0
sS'pre3abstract'
p330
I0
sg62
F1.0
sS'pre1degree'
p331
I0
sS'pre4abstract'
p332
I0
sS'pre2degree'
p333
I0
sS'next3degree'
p334
I0
sS'next4abstract'
p335
I0
sS'next1keyword'
p336
I0
sS'pre3phone'
p337
I0
sS'pre1note'
p338
I0
sS'pre4keyword'
p339
I0
sg72
I0
sS'pre4address'
p340
I0
sS'pre2date'
p341
I0
sS'next2title'
p342
I0
sS'pre3address'
p343
I0
sS'next1pubnum'
p344
I0
sS'next2author'
p345
I0
sS'pre2web'
p346
I0
sS'next1email'
p347
I0
sg81
S'degree'
p348
sS'pre1web'
p349
I0
sS'pre4email'
p350
I0
sS'pre1keyword'
p351
I0
sS'pre4date'
p352
I0
sS'next1affiliation'
p353
I0
sS'next2degree'
p354
I0
sS'pre1phone'
p355
I0
sg90
g232
sg92
I0
sS'pre2abstract'
p356
I0
sS'next1intro'
p357
I0
sS'next2intro'
p358
I0
sS'pre3degree'
p359
I0
sS'pre1author'
p360
I0
sS'next3page'
p361
I0
sS'next3web'
p362
I0
sS'next4date'
p363
I0
sg101
F0.0
sg102
F0.0
sg103
I0
sS'pre2author'
p364
I0
sg105
I0
sS'next2page'
p365
I0
sS'next3pubnum'
p366
I0
sS'next1degree'
p367
I0
sS'pre1date'
p368
I0
sS'pre4phone'
p369
I0
sg111
I0
sS'next4intro'
p370
I0
sg113
F0.0
sS'next2affiliation'
p371
F0.5
sS'next4author'
p372
I0
sS'next4note'
p373
I0
sS'pre1pubnum'
p374
I0
sg118
I0
sg119
I0
sS'next2address'
p375
I0
sS'next2keyword'
p376
I0
sS'next3note'
p377
I0
sS'next3affiliation'
p378
I0
sS'pre4degree'
p379
I0
sS'next4email'
p380
F0.5
sg126
F0.6666666666666666
sS'next1web'
p381
I0
sS'next2email'
p382
I0
sS'next2web'
p383
I0
sg130
F0.0
sS'pre3page'
p384
I0
sS'next3author'
p385
I0
sS'pre1address'
p386
I0
sS'pre2email'
p387
I0
sS'next4web'
p388
I0
sS'pre4author'
p389
I0
sS'pre1title'
p390
F0.5
sS'next4page'
p391
I0
sg139
I0
sS'next4keyword'
p392
I0
sg141
I0
sS'next1phone'
p393
I0
sS'pre4intro'
p394
I0
sS'pre3keyword'
p395
I0
sS'pre2title'
p396
I0
sS'pre3email'
p397
I0
sS'pre4title'
p398
I0
sS'next3date'
p399
I0
sS'next2phone'
p400
I0
sS'next1date'
p401
I0
sg151
F0.0
sS'pre1intro'
p402
I0
sS'pre2page'
p403
I0
sS'next2abstract'
p404
I0
sS'next4address'
p405
I0
sS'next1title'
p406
I0
sS'pre1page'
p407
I0
sg158
I0
sg159
F0.33333333333333337
sg160
I0
sa(dp408
S'pre4pubnum'
p409
I0
sS'next1page'
p410
I0
sS'pre2keyword'
p411
I0
sS'next3address'
p412
I0
sS'pre3affiliation'
p413
I0
sS'pre1email'
p414
I0
sS'next3intro'
p415
I0
sS'pre4page'
p416
I0
sg10
I0
sg11
F0.5
sS'next4phone'
p417
I0
sg13
S'"<degree> Thesis by  </degree>::line_number::1"'
p418
sg15
I0
sg16
I0
sS'next1author'
p419
F0.5
sg18
F0.0
sg19
I0
sg20
F0.0
sg21
F0.0
sS'pre3note'
p420
I0
sS'next3phone'
p421
I0
sS'pre2note'
p422
I0
sS'next1address'
p423
I0
sS'pre1affiliation'
p424
I0
sS'pre2address'
p425
I0
sS'pre1abstract'
p426
I0
sS'next3abstract'
p427
I0
sS'pre2affiliation'
p428
I0
sS'pre3title'
p429
I0
sg32
I0
sS'pre3pubnum'
p430
I0
sg34
I65
sS'pre3date'
p431
I0
sS'next4title'
p432
I0
sS'next3email'
p433
I0
sg38
I0
sS'next1abstract'
p434
I0
sS'pre2phone'
p435
I0
sS'pre4affiliation'
p436
I0
sS'pre2intro'
p437
I0
sS'next2date'
p438
I0
sS'pre3intro'
p439
I0
sS'next2note'
p440
I0
sS'next3title'
p441
I0
sS'next3keyword'
p442
I0
sS'pre2pubnum'
p443
I0
sS'next4affiliation'
p444
I0
sS'next2pubnum'
p445
I0
sS'pre4note'
p446
I0
sg52
I0
sg53
F0.0
sS'pre3web'
p447
I0
sS'next4pubnum'
p448
I0
sS'next4degree'
p449
I0
sg57
I0
sS'pre3author'
p450
I0
sS'pre4web'
p451
I0
sS'next1note'
p452
I0
sS'pre3abstract'
p453
I0
sg62
F0.5
sS'pre1degree'
p454
I0
sS'pre4abstract'
p455
I0
sS'pre2degree'
p456
I0
sS'next3degree'
p457
I0
sS'next4abstract'
p458
I0
sS'next1keyword'
p459
I0
sS'pre3phone'
p460
I0
sS'pre1note'
p461
I0
sS'pre4keyword'
p462
I0
sg72
I0
sS'pre4address'
p463
I0
sS'pre2date'
p464
I0
sS'next2title'
p465
I0
sS'pre3address'
p466
I0
sS'next1pubnum'
p467
I0
sS'next2author'
p468
I0
sS'pre2web'
p469
I0
sS'next1email'
p470
I0
sg81
S'degree'
p471
sS'pre1web'
p472
I0
sS'pre4email'
p473
I0
sS'pre1keyword'
p474
I0
sS'pre4date'
p475
I0
sS'next1affiliation'
p476
I0
sS'next2degree'
p477
F0.5
sS'pre1phone'
p478
I0
sg90
g232
sg92
I0
sS'pre2abstract'
p479
I0
sS'next1intro'
p480
I0
sS'next2intro'
p481
I0
sS'pre3degree'
p482
I0
sS'pre1author'
p483
I0
sS'next3page'
p484
I0
sS'next3web'
p485
I0
sS'next4date'
p486
I0
sg101
F0.5
sg102
F0.0
sg103
I0
sS'pre2author'
p487
I0
sg105
I0
sS'next2page'
p488
I0
sS'next3pubnum'
p489
I0
sS'next1degree'
p490
I0
sS'pre1date'
p491
I0
sS'pre4phone'
p492
I0
sg111
I0
sS'next4intro'
p493
I0
sg113
F0.0
sS'next2affiliation'
p494
I0
sS'next4author'
p495
I0
sS'next4note'
p496
I0
sS'pre1pubnum'
p497
I0
sg118
I0
sg119
I0
sS'next2address'
p498
I0
sS'next2keyword'
p499
I0
sS'next3note'
p500
I0
sS'next3affiliation'
p501
F0.5
sS'pre4degree'
p502
I0
sS'next4email'
p503
I0
sg126
F0.5
sS'next1web'
p504
I0
sS'next2email'
p505
I0
sS'next2web'
p506
I0
sg130
F0.0
sS'pre3page'
p507
I0
sS'next3author'
p508
I0
sS'pre1address'
p509
I0
sS'pre2email'
p510
I0
sS'next4web'
p511
I0
sS'pre4author'
p512
I0
sS'pre1title'
p513
F0.5
sS'next4page'
p514
I0
sg139
I0
sS'next4keyword'
p515
I0
sg141
I0
sS'next1phone'
p516
I0
sS'pre4intro'
p517
I0
sS'pre3keyword'
p518
I0
sS'pre2title'
p519
I0
sS'pre3email'
p520
I0
sS'pre4title'
p521
I0
sS'next3date'
p522
I0
sS'next2phone'
p523
I0
sS'next1date'
p524
I0
sg151
F0.0
sS'pre1intro'
p525
I0
sS'pre2page'
p526
I0
sS'next2abstract'
p527
I0
sS'next4address'
p528
F0.5
sS'next1title'
p529
I0
sS'pre1page'
p530
I0
sg158
I0
sg159
F0.5
sg160
I0
sa(dp531
S'pre4pubnum'
p532
I0
sS'next1page'
p533
I0
sS'pre2keyword'
p534
I0
sS'next3address'
p535
I0
sS'pre3affiliation'
p536
I0
sS'pre1email'
p537
I0
sS'next3intro'
p538
I0
sS'pre4page'
p539
I0
sg10
I0
sg11
F0.6923076923076923
sS'next4phone'
p540
I0
sg13
S'"<degree> In Partial Fulfillment of the Requirements for the Degree of Doctor of Philosophy  </degree>::line_number::3"'
p541
sg15
I0
sg16
I0
sS'next1author'
p542
I0
sg18
F0.0
sg19
I0
sg20
F0.0
sg21
F0.0
sS'pre3note'
p543
I0
sS'next3phone'
p544
I0
sS'pre2note'
p545
I0
sS'next1address'
p546
I0
sS'pre1affiliation'
p547
I0
sS'pre2address'
p548
I0
sS'pre1abstract'
p549
I0
sS'next3abstract'
p550
I0
sS'pre2affiliation'
p551
I0
sS'pre3title'
p552
F0.5
sg32
I0
sS'pre3pubnum'
p553
I0
sg34
I65
sS'pre3date'
p554
I0
sS'next4title'
p555
I0
sS'next3email'
p556
I0
sg38
I0
sS'next1abstract'
p557
I0
sS'pre2phone'
p558
I0
sS'pre4affiliation'
p559
I0
sS'pre2intro'
p560
I0
sS'next2date'
p561
I0
sS'pre3intro'
p562
I0
sS'next2note'
p563
I0
sS'next3title'
p564
I0
sS'next3keyword'
p565
I0
sS'pre2pubnum'
p566
I0
sS'next4affiliation'
p567
I0
sS'next2pubnum'
p568
I0
sS'pre4note'
p569
I0
sg52
I0
sg53
F0.0
sS'pre3web'
p570
I0
sS'next4pubnum'
p571
I0
sS'next4degree'
p572
I0
sg57
I0
sS'pre3author'
p573
I0
sS'pre4web'
p574
I0
sS'next1note'
p575
I0
sS'pre3abstract'
p576
I0
sg62
F0.38461538461538464
sS'pre1degree'
p577
I0
sS'pre4abstract'
p578
I0
sS'pre2degree'
p579
F0.5
sS'next3degree'
p580
I0
sS'next4abstract'
p581
I0
sS'next1keyword'
p582
I0
sS'pre3phone'
p583
I0
sS'pre1note'
p584
I0
sS'pre4keyword'
p585
I0
sg72
I4
sS'pre4address'
p586
I0
sS'pre2date'
p587
I0
sS'next2title'
p588
I0
sS'pre3address'
p589
I0
sS'next1pubnum'
p590
I0
sS'next2author'
p591
I0
sS'pre2web'
p592
I0
sS'next1email'
p593
I0
sg81
S'degree'
p594
sS'pre1web'
p595
I0
sS'pre4email'
p596
I0
sS'pre1keyword'
p597
I0
sS'pre4date'
p598
I0
sS'next1affiliation'
p599
F0.5
sS'next2degree'
p600
I0
sS'pre1phone'
p601
I0
sg90
S'3'
p602
sg92
I0
sS'pre2abstract'
p603
I0
sS'next1intro'
p604
I0
sS'next2intro'
p605
I0
sS'pre3degree'
p606
I0
sS'pre1author'
p607
F0.5
sS'next3page'
p608
I0
sS'next3web'
p609
I0
sS'next4date'
p610
I0
sg101
F0.3076923076923077
sg102
F0.0
sg103
I0
sS'pre2author'
p611
I0
sg105
I0
sS'next2page'
p612
I0
sS'next3pubnum'
p613
I0
sS'next1degree'
p614
I0
sS'pre1date'
p615
I0
sS'pre4phone'
p616
I0
sg111
I0
sS'next4intro'
p617
I0
sg113
F0.0
sS'next2affiliation'
p618
I0
sS'next4author'
p619
I0
sS'next4note'
p620
I0
sS'pre1pubnum'
p621
I0
sg118
I0
sg119
I0
sS'next2address'
p622
F0.5
sS'next2keyword'
p623
I0
sS'next3note'
p624
I0
sS'next3affiliation'
p625
I0
sS'pre4degree'
p626
I0
sS'next4email'
p627
I0
sg126
F0.75
sS'next1web'
p628
I0
sS'next2email'
p629
I0
sS'next2web'
p630
I0
sg130
F0.0
sS'pre3page'
p631
I0
sS'next3author'
p632
I0
sS'pre1address'
p633
I0
sS'pre2email'
p634
I0
sS'next4web'
p635
I0
sS'pre4author'
p636
I0
sS'pre1title'
p637
I0
sS'next4page'
p638
F0.5
sg139
I0
sS'next4keyword'
p639
I0
sg141
I0
sS'next1phone'
p640
I0
sS'pre4intro'
p641
I0
sS'pre3keyword'
p642
I0
sS'pre2title'
p643
I0
sS'pre3email'
p644
I0
sS'pre4title'
p645
I0
sS'next3date'
p646
F0.5
sS'next2phone'
p647
I0
sS'next1date'
p648
I0
sg151
F0.0
sS'pre1intro'
p649
I0
sS'pre2page'
p650
I0
sS'next2abstract'
p651
I0
sS'next4address'
p652
I0
sS'next1title'
p653
I0
sS'pre1page'
p654
I0
sg158
I0
sg159
F0.25
sg160
I0
sa(dp655
S'pre4pubnum'
p656
I0
sS'next1page'
p657
I0
sS'pre2keyword'
p658
I0
sS'next3address'
p659
I0
sS'pre3affiliation'
p660
I0
sS'pre1email'
p661
I0
sS'next3intro'
p662
I0
sS'pre4page'
p663
I0
sg10
I0
sg11
F0.5
sS'next4phone'
p664
I0
sg13
S'"<degree> Senior Thesis  </degree>::line_number::2"'
p665
sg15
I0
sg16
I0
sS'next1author'
p666
I0
sg18
F0.0
sg19
I0
sg20
F0.0
sg21
F0.0
sS'pre3note'
p667
I0
sS'next3phone'
p668
I0
sS'pre2note'
p669
I0
sS'next1address'
p670
I0
sS'pre1affiliation'
p671
I0
sS'pre2address'
p672
I0
sS'pre1abstract'
p673
I0
sS'next3abstract'
p674
I0
sS'pre2affiliation'
p675
I0
sS'pre3title'
p676
I0
sg32
I0
sS'pre3pubnum'
p677
I0
sg34
I82
sS'pre3date'
p678
I0
sS'next4title'
p679
I0
sS'next3email'
p680
I0
sg38
I0
sS'next1abstract'
p681
I0
sS'pre2phone'
p682
I0
sS'pre4affiliation'
p683
I0
sS'pre2intro'
p684
I0
sS'next2date'
p685
I0
sS'pre3intro'
p686
I0
sS'next2note'
p687
I0
sS'next3title'
p688
I0
sS'next3keyword'
p689
I0
sS'pre2pubnum'
p690
I0
sS'next4affiliation'
p691
I0
sS'next2pubnum'
p692
I0
sS'pre4note'
p693
I0
sg52
I0
sg53
F0.0
sS'pre3web'
p694
I0
sS'next4pubnum'
p695
I0
sS'next4degree'
p696
I0
sg57
I0
sS'pre3author'
p697
I0
sS'pre4web'
p698
I0
sS'next1note'
p699
I0
sS'pre3abstract'
p700
I0
sg62
F0.5
sS'pre1degree'
p701
I0
sS'pre4abstract'
p702
I0
sS'pre2degree'
p703
I0
sS'next3degree'
p704
I0
sS'next4abstract'
p705
I0
sS'next1keyword'
p706
I0
sS'pre3phone'
p707
I0
sS'pre1note'
p708
I0
sS'pre4keyword'
p709
I0
sg72
I0
sS'pre4address'
p710
I0
sS'pre2date'
p711
I0
sS'next2title'
p712
I0
sS'pre3address'
p713
I0
sS'next1pubnum'
p714
I0
sS'next2author'
p715
I0
sS'pre2web'
p716
I0
sS'next1email'
p717
I0
sg81
S'degree'
p718
sS'pre1web'
p719
I0
sS'pre4email'
p720
I0
sS'pre1keyword'
p721
I0
sS'pre4date'
p722
I0
sS'next1affiliation'
p723
F0.5
sS'next2degree'
p724
I0
sS'pre1phone'
p725
I0
sg90
S'2'
p726
sg92
I0
sS'pre2abstract'
p727
I0
sS'next1intro'
p728
I0
sS'next2intro'
p729
I0
sS'pre3degree'
p730
I0
sS'pre1author'
p731
F0.5
sS'next3page'
p732
I0
sS'next3web'
p733
I0
sS'next4date'
p734
I0
sg101
F0.5
sg102
F0.0
sg103
I0
sS'pre2author'
p735
I0
sg105
I0
sS'next2page'
p736
I0
sS'next3pubnum'
p737
F0.5
sS'next1degree'
p738
I0
sS'pre1date'
p739
I0
sS'pre4phone'
p740
I0
sg111
I0
sS'next4intro'
p741
I0
sg113
F0.0
sS'next2affiliation'
p742
I0
sS'next4author'
p743
I0
sS'next4note'
p744
I0
sS'pre1pubnum'
p745
I0
sg118
I0
sg119
I0
sS'next2address'
p746
F0.5
sS'next2keyword'
p747
I0
sS'next3note'
p748
I0
sS'next3affiliation'
p749
I0
sS'pre4degree'
p750
I0
sS'next4email'
p751
F0.5
sg126
F0.3333333333333333
sS'next1web'
p752
I0
sS'next2email'
p753
I0
sS'next2web'
p754
I0
sg130
F0.0
sS'pre3page'
p755
I0
sS'next3author'
p756
I0
sS'pre1address'
p757
I0
sS'pre2email'
p758
I0
sS'next4web'
p759
I0
sS'pre4author'
p760
I0
sS'pre1title'
p761
I0
sS'next4page'
p762
I0
sg139
I0
sS'next4keyword'
p763
I0
sg141
I0
sS'next1phone'
p764
I0
sS'pre4intro'
p765
I0
sS'pre3keyword'
p766
I0
sS'pre2title'
p767
F0.5
sS'pre3email'
p768
I0
sS'pre4title'
p769
I0
sS'next3date'
p770
I0
sS'next2phone'
p771
I0
sS'next1date'
p772
I0
sg151
F0.0
sS'pre1intro'
p773
I0
sS'pre2page'
p774
I0
sS'next2abstract'
p775
I0
sS'next4address'
p776
I0
sS'next1title'
p777
I0
sS'pre1page'
p778
I0
sg158
I0
sg159
F0.6666666666666667
sg160
I0
sa(dp779
S'pre4pubnum'
p780
I0
sS'next1page'
p781
I0
sS'pre2keyword'
p782
I0
sS'next3address'
p783
I0
sS'pre3affiliation'
p784
I0
sS'pre1email'
p785
I0
sS'next3intro'
p786
I0
sS'pre4page'
p787
I0
sg10
I0
sg11
F0.5333333333333333
sS'next4phone'
p788
I0
sg13
S'"<degree> A thesis submitted in conformity with the requirements for the degree of Master of Science  </degree>::line_number::2"'
p789
sg15
I0
sg16
I0
sS'next1author'
p790
I0
sg18
F0.0
sg19
I0
sg20
F0.0
sg21
F0.0
sS'pre3note'
p791
I0
sS'next3phone'
p792
I0
sS'pre2note'
p793
I0
sS'next1address'
p794
I0
sS'pre1affiliation'
p795
I0
sS'pre2address'
p796
I0
sS'pre1abstract'
p797
I0
sS'next3abstract'
p798
I0
sS'pre2affiliation'
p799
I0
sS'pre3title'
p800
I0
sg32
I0
sS'pre3pubnum'
p801
I0
sg34
I106
sS'pre3date'
p802
I0
sS'next4title'
p803
I0
sS'next3email'
p804
I0
sg38
I0
sS'next1abstract'
p805
I0
sS'pre2phone'
p806
I0
sS'pre4affiliation'
p807
I0
sS'pre2intro'
p808
I0
sS'next2date'
p809
I0
sS'pre3intro'
p810
I0
sS'next2note'
p811
F0.5
sS'next3title'
p812
I0
sS'next3keyword'
p813
I0
sS'pre2pubnum'
p814
I0
sS'next4affiliation'
p815
I0
sS'next2pubnum'
p816
I0
sS'pre4note'
p817
I0
sg52
I0
sg53
F0.0
sS'pre3web'
p818
I0
sS'next4pubnum'
p819
I0
sS'next4degree'
p820
I0
sg57
I0
sS'pre3author'
p821
I0
sS'pre4web'
p822
I0
sS'next1note'
p823
I0
sS'pre3abstract'
p824
I0
sg62
F0.26666666666666666
sS'pre1degree'
p825
I0
sS'pre4abstract'
p826
I0
sS'pre2degree'
p827
I0
sS'next3degree'
p828
I0
sS'next4abstract'
p829
I0
sS'next1keyword'
p830
I0
sS'pre3phone'
p831
I0
sS'pre1note'
p832
I0
sS'pre4keyword'
p833
I0
sg72
I3
sS'pre4address'
p834
I0
sS'pre2date'
p835
I0
sS'next2title'
p836
I0
sS'pre3address'
p837
I0
sS'next1pubnum'
p838
I0
sS'next2author'
p839
I0
sS'pre2web'
p840
I0
sS'next1email'
p841
I0
sg81
S'degree'
p842
sS'pre1web'
p843
I0
sS'pre4email'
p844
I0
sS'pre1keyword'
p845
I0
sS'pre4date'
p846
I0
sS'next1affiliation'
p847
F0.5
sS'next2degree'
p848
I0
sS'pre1phone'
p849
I0
sg90
g726
sg92
I0
sS'pre2abstract'
p850
I0
sS'next1intro'
p851
I0
sS'next2intro'
p852
I0
sS'pre3degree'
p853
I0
sS'pre1author'
p854
F0.5
sS'next3page'
p855
F0.5
sS'next3web'
p856
I0
sS'next4date'
p857
I0
sg101
F0.4666666666666667
sg102
F0.06666666666666667
sg103
I0
sS'pre2author'
p858
I0
sg105
I0
sS'next2page'
p859
I0
sS'next3pubnum'
p860
I0
sS'next1degree'
p861
I0
sS'pre1date'
p862
I0
sS'pre4phone'
p863
I0
sg111
I0
sS'next4intro'
p864
I0
sg113
F0.0
sS'next2affiliation'
p865
I0
sS'next4author'
p866
I0
sS'next4note'
p867
I0
sS'pre1pubnum'
p868
I0
sg118
I0
sg119
I0
sS'next2address'
p869
I0
sS'next2keyword'
p870
I0
sS'next3note'
p871
I0
sS'next3affiliation'
p872
I0
sS'pre4degree'
p873
I0
sS'next4email'
p874
I0
sg126
F0.75
sS'next1web'
p875
I0
sS'next2email'
p876
I0
sS'next2web'
p877
I0
sg130
F0.0
sS'pre3page'
p878
I0
sS'next3author'
p879
I0
sS'pre1address'
p880
I0
sS'pre2email'
p881
I0
sS'next4web'
p882
I0
sS'pre4author'
p883
I0
sS'pre1title'
p884
I0
sS'next4page'
p885
I0
sg139
I1
sS'next4keyword'
p886
I0
sg141
I0
sS'next1phone'
p887
I0
sS'pre4intro'
p888
I0
sS'pre3keyword'
p889
I0
sS'pre2title'
p890
F0.5
sS'pre3email'
p891
I0
sS'pre4title'
p892
I0
sS'next3date'
p893
I0
sS'next2phone'
p894
I0
sS'next1date'
p895
I0
sg151
F0.0
sS'pre1intro'
p896
I0
sS'pre2page'
p897
I0
sS'next2abstract'
p898
I0
sS'next4address'
p899
I0
sS'next1title'
p900
I0
sS'pre1page'
p901
I0
sg158
I1
sg159
F0.25
sg160
I0
sa(dp902
S'pre4pubnum'
p903
I0
sS'next1page'
p904
I0
sS'pre2keyword'
p905
I0
sS'next3address'
p906
I0
sS'pre3affiliation'
p907
I0
sS'pre1email'
p908
I0
sS'next3intro'
p909
I0
sS'pre4page'
p910
I0
sg10
I0
sg11
F0.6
sS'next4phone'
p911
I0
sg13
S'"<degree> A dissertation submitted in partial fulfillment of the requirements for the degree of Doctor of Philosophy (Computer Sciences) at the  </degree>::line_number::2"'
p912
sg15
I0
sg16
I0
sS'next1author'
p913
I0
sg18
F0.0
sg19
I0
sg20
F0.0
sg21
F0.0
sS'pre3note'
p914
I0
sS'next3phone'
p915
I0
sS'pre2note'
p916
I0
sS'next1address'
p917
I0
sS'pre1affiliation'
p918
I0
sS'pre2address'
p919
I0
sS'pre1abstract'
p920
I0
sS'next3abstract'
p921
I0
sS'pre2affiliation'
p922
I0
sS'pre3title'
p923
I0
sg32
I0
sS'pre3pubnum'
p924
I0
sg34
I164
sS'pre3date'
p925
I0
sS'next4title'
p926
I0
sS'next3email'
p927
I0
sg38
I0
sS'next1abstract'
p928
I0
sS'pre2phone'
p929
I0
sS'pre4affiliation'
p930
I0
sS'pre2intro'
p931
I0
sS'next2date'
p932
F0.5
sS'pre3intro'
p933
I0
sS'next2note'
p934
I0
sS'next3title'
p935
I0
sS'next3keyword'
p936
I0
sS'pre2pubnum'
p937
I0
sS'next4affiliation'
p938
I0
sS'next2pubnum'
p939
I0
sS'pre4note'
p940
I0
sg52
I0
sg53
F0.0
sS'pre3web'
p941
I0
sS'next4pubnum'
p942
I0
sS'next4degree'
p943
I0
sg57
I0
sS'pre3author'
p944
I0
sS'pre4web'
p945
I0
sS'next1note'
p946
I0
sS'pre3abstract'
p947
I0
sg62
F0.3
sS'pre1degree'
p948
I0
sS'pre4abstract'
p949
I0
sS'pre2degree'
p950
I0
sS'next3degree'
p951
I0
sS'next4abstract'
p952
I0
sS'next1keyword'
p953
I0
sS'pre3phone'
p954
I0
sS'pre1note'
p955
I0
sS'pre4keyword'
p956
I0
sg72
I6
sS'pre4address'
p957
I0
sS'pre2date'
p958
I0
sS'next2title'
p959
I0
sS'pre3address'
p960
I0
sS'next1pubnum'
p961
I0
sS'next2author'
p962
I0
sS'pre2web'
p963
I0
sS'next1email'
p964
I0
sg81
S'degree'
p965
sS'pre1web'
p966
I0
sS'pre4email'
p967
I0
sS'pre1keyword'
p968
I0
sS'pre4date'
p969
I0
sS'next1affiliation'
p970
F0.5
sS'next2degree'
p971
I0
sS'pre1phone'
p972
I0
sg90
g726
sg92
I0
sS'pre2abstract'
p973
I0
sS'next1intro'
p974
I0
sS'next2intro'
p975
I0
sS'pre3degree'
p976
I0
sS'pre1author'
p977
F0.5
sS'next3page'
p978
F0.5
sS'next3web'
p979
I0
sS'next4date'
p980
I0
sg101
F0.4
sg102
F0.0
sg103
I0
sS'pre2author'
p981
I0
sg105
I0
sS'next2page'
p982
I0
sS'next3pubnum'
p983
I0
sS'next1degree'
p984
I0
sS'pre1date'
p985
I0
sS'pre4phone'
p986
I0
sg111
I0
sS'next4intro'
p987
I0
sg113
F0.0
sS'next2affiliation'
p988
I0
sS'next4author'
p989
I0
sS'next4note'
p990
I0
sS'pre1pubnum'
p991
I0
sg118
I0
sg119
I0
sS'next2address'
p992
I0
sS'next2keyword'
p993
I0
sS'next3note'
p994
I0
sS'next3affiliation'
p995
I0
sS'pre4degree'
p996
I0
sS'next4email'
p997
I0
sg126
F0.6
sS'next1web'
p998
I0
sS'next2email'
p999
I0
sS'next2web'
p1000
I0
sg130
F0.0
sS'pre3page'
p1001
I0
sS'next3author'
p1002
I0
sS'pre1address'
p1003
I0
sS'pre2email'
p1004
I0
sS'next4web'
p1005
I0
sS'pre4author'
p1006
I0
sS'pre1title'
p1007
I0
sS'next4page'
p1008
I0
sg139
I1
sS'next4keyword'
p1009
I0
sg141
I0
sS'next1phone'
p1010
I0
sS'pre4intro'
p1011
I0
sS'pre3keyword'
p1012
I0
sS'pre2title'
p1013
F0.5
sS'pre3email'
p1014
I0
sS'pre4title'
p1015
I0
sS'next3date'
p1016
I0
sS'next2phone'
p1017
I0
sS'next1date'
p1018
I0
sg151
F0.0
sS'pre1intro'
p1019
I0
sS'pre2page'
p1020
I0
sS'next2abstract'
p1021
I0
sS'next4address'
p1022
I0
sS'next1title'
p1023
I0
sS'pre1page'
p1024
I0
sg158
I0
sg159
F0.4
sg160
I0
sa(dp1025
S'pre4pubnum'
p1026
I0
sS'next1page'
p1027
I0
sS'pre2keyword'
p1028
I0
sS'next3address'
p1029
I0
sS'pre3affiliation'
p1030
I0
sS'pre1email'
p1031
I0
sS'next3intro'
p1032
I0
sS'pre4page'
p1033
I0
sg10
I0
sg11
F0.6
sS'next4phone'
p1034
I0
sg13
S'"<degree> A thesis submitted in partial fulfillment of the requirements for the degree of Doctor of Philosophy (Computer Sciences) at the  </degree>::line_number::2"'
p1035
sg15
I0
sg16
I0
sS'next1author'
p1036
I0
sg18
F0.0
sg19
I0
sg20
F0.0
sg21
F0.0
sS'pre3note'
p1037
I0
sS'next3phone'
p1038
I0
sS'pre2note'
p1039
I0
sS'next1address'
p1040
I0
sS'pre1affiliation'
p1041
I0
sS'pre2address'
p1042
I0
sS'pre1abstract'
p1043
I0
sS'next3abstract'
p1044
I0
sS'pre2affiliation'
p1045
I0
sS'pre3title'
p1046
I0
sg32
I0
sS'pre3pubnum'
p1047
I0
sg34
I168
sS'pre3date'
p1048
I0
sS'next4title'
p1049
I0
sS'next3email'
p1050
I0
sg38
I0
sS'next1abstract'
p1051
I0
sS'pre2phone'
p1052
I0
sS'pre4affiliation'
p1053
I0
sS'pre2intro'
p1054
I0
sS'next2date'
p1055
F0.5
sS'pre3intro'
p1056
I0
sS'next2note'
p1057
I0
sS'next3title'
p1058
I0
sS'next3keyword'
p1059
I0
sS'pre2pubnum'
p1060
I0
sS'next4affiliation'
p1061
I0
sS'next2pubnum'
p1062
I0
sS'pre4note'
p1063
I0
sg52
I0
sg53
F0.0
sS'pre3web'
p1064
I0
sS'next4pubnum'
p1065
I0
sS'next4degree'
p1066
I0
sg57
I0
sS'pre3author'
p1067
I0
sS'pre4web'
p1068
I0
sS'next1note'
p1069
I0
sS'pre3abstract'
p1070
I0
sg62
F0.3
sS'pre1degree'
p1071
I0
sS'pre4abstract'
p1072
I0
sS'pre2degree'
p1073
I0
sS'next3degree'
p1074
I0
sS'next4abstract'
p1075
I0
sS'next1keyword'
p1076
I0
sS'pre3phone'
p1077
I0
sS'pre1note'
p1078
I0
sS'pre4keyword'
p1079
I0
sg72
I5
sS'pre4address'
p1080
I0
sS'pre2date'
p1081
I0
sS'next2title'
p1082
I0
sS'pre3address'
p1083
I0
sS'next1pubnum'
p1084
I0
sS'next2author'
p1085
I0
sS'pre2web'
p1086
I0
sS'next1email'
p1087
I0
sg81
S'degree'
p1088
sS'pre1web'
p1089
I0
sS'pre4email'
p1090
I0
sS'pre1keyword'
p1091
I0
sS'pre4date'
p1092
I0
sS'next1affiliation'
p1093
F0.5
sS'next2degree'
p1094
I0
sS'pre1phone'
p1095
I0
sg90
g726
sg92
I0
sS'pre2abstract'
p1096
I0
sS'next1intro'
p1097
I0
sS'next2intro'
p1098
I0
sS'pre3degree'
p1099
I0
sS'pre1author'
p1100
F0.5
sS'next3page'
p1101
F0.5
sS'next3web'
p1102
I0
sS'next4date'
p1103
I0
sg101
F0.4
sg102
F0.0
sg103
I0
sS'pre2author'
p1104
I0
sg105
I0
sS'next2page'
p1105
I0
sS'next3pubnum'
p1106
I0
sS'next1degree'
p1107
I0
sS'pre1date'
p1108
I0
sS'pre4phone'
p1109
I0
sg111
I0
sS'next4intro'
p1110
I0
sg113
F0.0
sS'next2affiliation'
p1111
I0
sS'next4author'
p1112
I0
sS'next4note'
p1113
I0
sS'pre1pubnum'
p1114
I0
sg118
I0
sg119
I0
sS'next2address'
p1115
I0
sS'next2keyword'
p1116
I0
sS'next3note'
p1117
I0
sS'next3affiliation'
p1118
I0
sS'pre4degree'
p1119
I0
sS'next4email'
p1120
I0
sg126
F0.6
sS'next1web'
p1121
I0
sS'next2email'
p1122
I0
sS'next2web'
p1123
I0
sg130
F0.0
sS'pre3page'
p1124
I0
sS'next3author'
p1125
I0
sS'pre1address'
p1126
I0
sS'pre2email'
p1127
I0
sS'next4web'
p1128
I0
sS'pre4author'
p1129
I0
sS'pre1title'
p1130
I0
sS'next4page'
p1131
I0
sg139
I1
sS'next4keyword'
p1132
I0
sg141
I0
sS'next1phone'
p1133
I0
sS'pre4intro'
p1134
I0
sS'pre3keyword'
p1135
I0
sS'pre2title'
p1136
F0.5
sS'pre3email'
p1137
I0
sS'pre4title'
p1138
I0
sS'next3date'
p1139
I0
sS'next2phone'
p1140
I0
sS'next1date'
p1141
I0
sg151
F0.0
sS'pre1intro'
p1142
I0
sS'pre2page'
p1143
I0
sS'next2abstract'
p1144
I0
sS'next4address'
p1145
I0
sS'next1title'
p1146
I0
sS'pre1page'
p1147
I0
sg158
I0
sg159
F0.4
sg160
I0
sa(dp1148
S'pre4pubnum'
p1149
I0
sS'next1page'
p1150
I0
sS'pre2keyword'
p1151
I0
sS'next3address'
p1152
I0
sS'pre3affiliation'
p1153
I0
sS'pre1email'
p1154
I0
sS'next3intro'
p1155
I0
sS'pre4page'
p1156
I0
sg10
I2
sg11
F0.6341463414634146
sS'next4phone'
p1157
I0
sg13
S'"<degree> Bachelor of Arts in Linguistics, Stanford University (1987) Master of Arts in Linguistics, Stanford University (1989) Submitted to the Department of Linguistics and Philosophy in Partial Fulfillment of the Requirements for the Degree of Doctor of Philosophy at the  </degree>::line_number::3"'
p1158
sg15
I0
sg16
I0
sS'next1author'
p1159
I0
sg18
F0.035555555555555556
sg19
I0
sg20
F0.0
sg21
F0.04878048780487805
sS'pre3note'
p1160
F0.5
sS'next3phone'
p1161
I0
sS'pre2note'
p1162
I0
sS'next1address'
p1163
I0
sS'pre1affiliation'
p1164
I0
sS'pre2address'
p1165
I0
sS'pre1abstract'
p1166
I0
sS'next3abstract'
p1167
I0
sS'pre2affiliation'
p1168
I0
sS'pre3title'
p1169
I0
sg32
I0
sS'pre3pubnum'
p1170
I0
sg34
I226
sS'pre3date'
p1171
I0
sS'next4title'
p1172
I0
sS'next3email'
p1173
I0
sg38
I0
sS'next1abstract'
p1174
I0
sS'pre2phone'
p1175
I0
sS'pre4affiliation'
p1176
I0
sS'pre2intro'
p1177
I0
sS'next2date'
p1178
I0
sS'pre3intro'
p1179
I0
sS'next2note'
p1180
I0
sS'next3title'
p1181
I0
sS'next3keyword'
p1182
I0
sS'pre2pubnum'
p1183
I0
sS'next4affiliation'
p1184
I0
sS'next2pubnum'
p1185
I0
sS'pre4note'
p1186
I0
sg52
I2
sg53
F0.0
sS'pre3web'
p1187
I0
sS'next4pubnum'
p1188
I0
sS'next4degree'
p1189
I0
sg57
I0
sS'pre3author'
p1190
I0
sS'pre4web'
p1191
I0
sS'next1note'
p1192
I0
sS'pre3abstract'
p1193
I0
sg62
F0.2682926829268293
sS'pre1degree'
p1194
I0
sS'pre4abstract'
p1195
I0
sS'pre2degree'
p1196
I0
sS'next3degree'
p1197
F0.5
sS'next4abstract'
p1198
I0
sS'next1keyword'
p1199
I0
sS'pre3phone'
p1200
I0
sS'pre1note'
p1201
I0
sS'pre4keyword'
p1202
I0
sg72
I13
sS'pre4address'
p1203
I0
sS'pre2date'
p1204
I0
sS'next2title'
p1205
I0
sS'pre3address'
p1206
I0
sS'next1pubnum'
p1207
I0
sS'next2author'
p1208
F0.5
sS'pre2web'
p1209
I0
sS'next1email'
p1210
I0
sg81
S'degree'
p1211
sS'pre1web'
p1212
I0
sS'pre4email'
p1213
I0
sS'pre1keyword'
p1214
I0
sS'pre4date'
p1215
I0
sS'next1affiliation'
p1216
F0.5
sS'next2degree'
p1217
I0
sS'pre1phone'
p1218
I0
sg90
g602
sg92
I0
sS'pre2abstract'
p1219
I0
sS'next1intro'
p1220
I0
sS'next2intro'
p1221
I0
sS'pre3degree'
p1222
I0
sS'pre1author'
p1223
F0.5
sS'next3page'
p1224
I0
sS'next3web'
p1225
I0
sS'next4date'
p1226
F0.5
sg101
F0.36585365853658536
sg102
F0.024390243902439025
sg103
I0
sS'pre2author'
p1227
I0
sg105
I0
sS'next2page'
p1228
I0
sS'next3pubnum'
p1229
I0
sS'next1degree'
p1230
I0
sS'pre1date'
p1231
I0
sS'pre4phone'
p1232
I0
sg111
I0
sS'next4intro'
p1233
I0
sg113
F0.07317073170731707
sS'next2affiliation'
p1234
I0
sS'next4author'
p1235
I0
sS'next4note'
p1236
I0
sS'pre1pubnum'
p1237
I0
sg118
I0
sg119
I2
sS'next2address'
p1238
I0
sS'next2keyword'
p1239
I0
sS'next3note'
p1240
I0
sS'next3affiliation'
p1241
I0
sS'pre4degree'
p1242
I0
sS'next4email'
p1243
I0
sg126
F0.7619047619047619
sS'next1web'
p1244
I0
sS'next2email'
p1245
I0
sS'next2web'
p1246
I0
sg130
F0.0
sS'pre3page'
p1247
I0
sS'next3author'
p1248
I0
sS'pre1address'
p1249
I0
sS'pre2email'
p1250
I0
sS'next4web'
p1251
I0
sS'pre4author'
p1252
I0
sS'pre1title'
p1253
I0
sS'next4page'
p1254
I0
sg139
I0
sS'next4keyword'
p1255
I0
sg141
I3
sS'next1phone'
p1256
I0
sS'pre4intro'
p1257
I0
sS'pre3keyword'
p1258
I0
sS'pre2title'
p1259
F0.5
sS'pre3email'
p1260
I0
sS'pre4title'
p1261
I0
sS'next3date'
p1262
I0
sS'next2phone'
p1263
I0
sS'next1date'
p1264
I0
sg151
F0.0
sS'pre1intro'
p1265
I0
sS'pre2page'
p1266
I0
sS'next2abstract'
p1267
I0
sS'next4address'
p1268
I0
sS'next1title'
p1269
I0
sS'pre1page'
p1270
I0
sg158
I1
sg159
F0.23809523809523814
sg160
I0
sa(dp1271
S'pre4pubnum'
p1272
I0
sS'next1page'
p1273
I0
sS'pre2keyword'
p1274
I0
sS'next3address'
p1275
I0
sS'pre3affiliation'
p1276
I0
sS'pre1email'
p1277
I0
sS'next3intro'
p1278
I0
sS'pre4page'
p1279
I0
sg10
I0
sg11
F0.5161290322580645
sS'next4phone'
p1280
I0
sg13
S'"<degree> The author hereby grants to M.I.T permission to reproduce and to distribute copies of this thesis document in whole or in part. Signature of Author  Department of Linguistics and Philosophy  </degree>::line_number::6"'
p1281
sg15
I0
sg16
I0
sS'next1author'
p1282
I0
sg18
F0.0
sg19
I0
sg20
F0.0
sg21
F0.0
sS'pre3note'
p1283
I0
sS'next3phone'
p1284
I0
sS'pre2note'
p1285
I0
sS'next1address'
p1286
I0
sS'pre1affiliation'
p1287
I0
sS'pre2address'
p1288
I0
sS'pre1abstract'
p1289
I0
sS'next3abstract'
p1290
I0
sS'pre2affiliation'
p1291
F0.5
sS'pre3title'
p1292
I0
sg32
I0
sS'pre3pubnum'
p1293
I0
sg34
I226
sS'pre3date'
p1294
I0
sS'next4title'
p1295
I0
sS'next3email'
p1296
I0
sg38
I0
sS'next1abstract'
p1297
I0
sS'pre2phone'
p1298
I0
sS'pre4affiliation'
p1299
I0
sS'pre2intro'
p1300
I0
sS'next2date'
p1301
I0
sS'pre3intro'
p1302
I0
sS'next2note'
p1303
I0
sS'next3title'
p1304
I0
sS'next3keyword'
p1305
I0
sS'pre2pubnum'
p1306
I0
sS'next4affiliation'
p1307
I0
sS'next2pubnum'
p1308
I0
sS'pre4note'
p1309
I0
sg52
I0
sg53
F0.0
sS'pre3web'
p1310
I0
sS'next4pubnum'
p1311
I0
sS'next4degree'
p1312
I0
sg57
I0
sS'pre3author'
p1313
I0
sS'pre4web'
p1314
I0
sS'next1note'
p1315
I0
sS'pre3abstract'
p1316
I0
sg62
F0.2903225806451613
sS'pre1degree'
p1317
I0
sS'pre4abstract'
p1318
I0
sS'pre2degree'
p1319
I0
sS'next3degree'
p1320
I0
sS'next4abstract'
p1321
I0
sS'next1keyword'
p1322
I0
sS'pre3phone'
p1323
I0
sS'pre1note'
p1324
I0
sS'pre4keyword'
p1325
I0
sg72
I7
sS'pre4address'
p1326
I0
sS'pre2date'
p1327
I0
sS'next2title'
p1328
I0
sS'pre3address'
p1329
I0
sS'next1pubnum'
p1330
I0
sS'next2author'
p1331
I0
sS'pre2web'
p1332
I0
sS'next1email'
p1333
I0
sg81
S'degree'
p1334
sS'pre1web'
p1335
I0
sS'pre4email'
p1336
I0
sS'pre1keyword'
p1337
I0
sS'pre4date'
p1338
I0
sS'next1affiliation'
p1339
I0
sS'next2degree'
p1340
F0.5
sS'pre1phone'
p1341
I0
sg90
S'6'
p1342
sg92
I0
sS'pre2abstract'
p1343
I0
sS'next1intro'
p1344
I0
sS'next2intro'
p1345
I0
sS'pre3degree'
p1346
F0.5
sS'pre1author'
p1347
F0.5
sS'next3page'
p1348
F0.5
sS'next3web'
p1349
I0
sS'next4date'
p1350
I0
sg101
F0.4838709677419355
sg102
F0.12903225806451613
sg103
I0
sS'pre2author'
p1351
I0
sg105
I0
sS'next2page'
p1352
I0
sS'next3pubnum'
p1353
I0
sS'next1degree'
p1354
I0
sS'pre1date'
p1355
I0
sS'pre4phone'
p1356
I0
sg111
I0
sS'next4intro'
p1357
I0
sg113
F0.03225806451612903
sS'next2affiliation'
p1358
I0
sS'next4author'
p1359
I0
sS'next4note'
p1360
I0
sS'pre1pubnum'
p1361
I0
sg118
I0
sg119
I0
sS'next2address'
p1362
I0
sS'next2keyword'
p1363
I0
sS'next3note'
p1364
I0
sS'next3affiliation'
p1365
I0
sS'pre4degree'
p1366
I0
sS'next4email'
p1367
I0
sg126
F0.625
sS'next1web'
p1368
I0
sS'next2email'
p1369
I0
sS'next2web'
p1370
I0
sg130
F0.0
sS'pre3page'
p1371
I0
sS'next3author'
p1372
I0
sS'pre1address'
p1373
I0
sS'pre2email'
p1374
I0
sS'next4web'
p1375
I0
sS'pre4author'
p1376
F0.5
sS'pre1title'
p1377
I0
sS'next4page'
p1378
I0
sg139
I0
sS'next4keyword'
p1379
I0
sg141
I1
sS'next1phone'
p1380
I0
sS'pre4intro'
p1381
I0
sS'pre3keyword'
p1382
I0
sS'pre2title'
p1383
I0
sS'pre3email'
p1384
I0
sS'pre4title'
p1385
I0
sS'next3date'
p1386
I0
sS'next2phone'
p1387
I0
sS'next1date'
p1388
F0.5
sg151
F0.0
sS'pre1intro'
p1389
I0
sS'pre2page'
p1390
I0
sS'next2abstract'
p1391
I0
sS'next4address'
p1392
I0
sS'next1title'
p1393
I0
sS'pre1page'
p1394
I0
sg158
I4
sg159
F0.375
sg160
I0
sa(dp1395
S'pre4pubnum'
p1396
I0
sS'next1page'
p1397
F0.5
sS'pre2keyword'
p1398
I0
sS'next3address'
p1399
I0
sS'pre3affiliation'
p1400
I0
sS'pre1email'
p1401
I0
sS'next3intro'
p1402
I0
sS'pre4page'
p1403
I0
sg10
I2
sg11
F0.42105263157894735
sS'next4phone'
p1404
I0
sg13
S'"<degree> Certified by  Noam Chomsky Institute Professor Accepted by  Wayne O\'Neil Head, Department of Linguistics and Philosophy  </degree>::line_number::8"'
p1405
sg15
I0
sg16
I0
sS'next1author'
p1406
I0
sg18
F0.0
sg19
I0
sg20
F0.0
sg21
F0.0
sS'pre3note'
p1407
I0
sS'next3phone'
p1408
I0
sS'pre2note'
p1409
I0
sS'next1address'
p1410
I0
sS'pre1affiliation'
p1411
I0
sS'pre2address'
p1412
I0
sS'pre1abstract'
p1413
I0
sS'next3abstract'
p1414
I0
sS'pre2affiliation'
p1415
I0
sS'pre3title'
p1416
I0
sg32
I0
sS'pre3pubnum'
p1417
I0
sg34
I226
sS'pre3date'
p1418
I0
sS'next4title'
p1419
I0
sS'next3email'
p1420
I0
sg38
I0
sS'next1abstract'
p1421
I0
sS'pre2phone'
p1422
I0
sS'pre4affiliation'
p1423
F0.5
sS'pre2intro'
p1424
I0
sS'next2date'
p1425
I0
sS'pre3intro'
p1426
I0
sS'next2note'
p1427
I0
sS'next3title'
p1428
I0
sS'next3keyword'
p1429
I0
sS'pre2pubnum'
p1430
I0
sS'next4affiliation'
p1431
I0
sS'next2pubnum'
p1432
I0
sS'pre4note'
p1433
I0
sg52
I0
sg53
F0.0
sS'pre3web'
p1434
I0
sS'next4pubnum'
p1435
I0
sS'next4degree'
p1436
I0
sg57
I0
sS'pre3author'
p1437
F0.5
sS'pre4web'
p1438
I0
sS'next1note'
p1439
I0
sS'pre3abstract'
p1440
I0
sg62
F0.21052631578947367
sS'pre1degree'
p1441
I0
sS'pre4abstract'
p1442
I0
sS'pre2degree'
p1443
F0.5
sS'next3degree'
p1444
I0
sS'next4abstract'
p1445
I0
sS'next1keyword'
p1446
I0
sS'pre3phone'
p1447
I0
sS'pre1note'
p1448
I0
sS'pre4keyword'
p1449
I0
sg72
I4
sS'pre4address'
p1450
I0
sS'pre2date'
p1451
I0
sS'next2title'
p1452
I0
sS'pre3address'
p1453
I0
sS'next1pubnum'
p1454
I0
sS'next2author'
p1455
I0
sS'pre2web'
p1456
I0
sS'next1email'
p1457
I0
sg81
S'degree'
p1458
sS'pre1web'
p1459
I0
sS'pre4email'
p1460
I0
sS'pre1keyword'
p1461
I0
sS'pre4date'
p1462
I0
sS'next1affiliation'
p1463
I0
sS'next2degree'
p1464
I0
sS'pre1phone'
p1465
I0
sg90
S'8'
p1466
sg92
I0
sS'pre2abstract'
p1467
I0
sS'next1intro'
p1468
I0
sS'next2intro'
p1469
I0
sS'pre3degree'
p1470
I0
sS'pre1author'
p1471
I0
sS'next3page'
p1472
I0
sS'next3web'
p1473
I0
sS'next4date'
p1474
I0
sg101
F0.5789473684210527
sg102
F0.10526315789473684
sg103
I0
sS'pre2author'
p1475
I0
sg105
I0
sS'next2page'
p1476
I0
sS'next3pubnum'
p1477
I0
sS'next1degree'
p1478
I0
sS'pre1date'
p1479
F0.5
sS'pre4phone'
p1480
I0
sg111
I0
sS'next4intro'
p1481
I0
sg113
F0.10526315789473684
sS'next2affiliation'
p1482
I0
sS'next4author'
p1483
I0
sS'next4note'
p1484
I0
sS'pre1pubnum'
p1485
I0
sg118
I0
sg119
I1
sS'next2address'
p1486
I0
sS'next2keyword'
p1487
I0
sS'next3note'
p1488
I0
sS'next3affiliation'
p1489
I0
sS'pre4degree'
p1490
I0
sS'next4email'
p1491
I0
sg126
F0.5384615384615384
sS'next1web'
p1492
I0
sS'next2email'
p1493
I0
sS'next2web'
p1494
I0
sg130
F0.0
sS'pre3page'
p1495
I0
sS'next3author'
p1496
I0
sS'pre1address'
p1497
I0
sS'pre2email'
p1498
I0
sS'next4web'
p1499
I0
sS'pre4author'
p1500
I0
sS'pre1title'
p1501
I0
sS'next4page'
p1502
I0
sg139
I0
sS'next4keyword'
p1503
I0
sg141
I2
sS'next1phone'
p1504
I0
sS'pre4intro'
p1505
I0
sS'pre3keyword'
p1506
I0
sS'pre2title'
p1507
I0
sS'pre3email'
p1508
I0
sS'pre4title'
p1509
I0
sS'next3date'
p1510
I0
sS'next2phone'
p1511
I0
sS'next1date'
p1512
I0
sg151
F0.0
sS'pre1intro'
p1513
I0
sS'pre2page'
p1514
I0
sS'next2abstract'
p1515
I0
sS'next4address'
p1516
I0
sS'next1title'
p1517
I0
sS'pre1page'
p1518
I0
sg158
I2
sg159
F0.46153846153846156
sg160
I0
sa(dp1519
S'pre4pubnum'
p1520
I0
sS'next1page'
p1521
I0
sS'pre2keyword'
p1522
I0
sS'next3address'
p1523
I0
sS'pre3affiliation'
p1524
I0
sS'pre1email'
p1525
I0
sS'next3intro'
p1526
I0
sS'pre4page'
p1527
I0
sg10
I1
sg11
F0.5882352941176471
sS'next4phone'
p1528
I0
sg13
S'"<degree> B.Tech. (Indian Institute of Technology, Bombay) 1989 M.S. (University of California at Berkeley, California) 1993 A dissertation submitted in partial satisfaction of the requirements for the degree of Doctor of Philosophy in  </degree>::line_number::2"'
p1529
sg15
I0
sg16
I0
sS'next1author'
p1530
I0
sg18
F0.04145077720207254
sg19
I0
sg20
F0.0
sg21
F0.0
sS'pre3note'
p1531
I0
sS'next3phone'
p1532
I0
sS'pre2note'
p1533
I0
sS'next1address'
p1534
I0
sS'pre1affiliation'
p1535
I0
sS'pre2address'
p1536
I0
sS'pre1abstract'
p1537
I0
sS'next3abstract'
p1538
I0
sS'pre2affiliation'
p1539
I0
sS'pre3title'
p1540
I0
sg32
I0
sS'pre3pubnum'
p1541
I0
sg34
I239
sS'pre3date'
p1542
I0
sS'next4title'
p1543
I0
sS'next3email'
p1544
I0
sg38
I0
sS'next1abstract'
p1545
I0
sS'pre2phone'
p1546
I0
sS'pre4affiliation'
p1547
I0
sS'pre2intro'
p1548
I0
sS'next2date'
p1549
I0
sS'pre3intro'
p1550
I0
sS'next2note'
p1551
I0
sS'next3title'
p1552
I0
sS'next3keyword'
p1553
I0
sS'pre2pubnum'
p1554
I0
sS'next4affiliation'
p1555
I0
sS'next2pubnum'
p1556
I0
sS'pre4note'
p1557
I0
sg52
I0
sg53
F0.058823529411764705
sS'pre3web'
p1558
I0
sS'next4pubnum'
p1559
I0
sS'next4degree'
p1560
F0.5
sg57
I0
sS'pre3author'
p1561
I0
sS'pre4web'
p1562
I0
sS'next1note'
p1563
I0
sS'pre3abstract'
p1564
I0
sg62
F0.23529411764705882
sS'pre1degree'
p1565
I0
sS'pre4abstract'
p1566
I0
sS'pre2degree'
p1567
I0
sS'next3degree'
p1568
I0
sS'next4abstract'
p1569
I0
sS'next1keyword'
p1570
I0
sS'pre3phone'
p1571
I0
sS'pre1note'
p1572
I0
sS'pre4keyword'
p1573
I0
sg72
I12
sS'pre4address'
p1574
I0
sS'pre2date'
p1575
I0
sS'next2title'
p1576
I0
sS'pre3address'
p1577
I0
sS'next1pubnum'
p1578
I0
sS'next2author'
p1579
I0
sS'pre2web'
p1580
I0
sS'next1email'
p1581
I0
sg81
S'degree'
p1582
sS'pre1web'
p1583
I0
sS'pre4email'
p1584
I0
sS'pre1keyword'
p1585
I0
sS'pre4date'
p1586
I0
sS'next1affiliation'
p1587
F0.5
sS'next2degree'
p1588
F0.5
sS'pre1phone'
p1589
I0
sg90
g726
sg92
I1
sS'pre2abstract'
p1590
I0
sS'next1intro'
p1591
I0
sS'next2intro'
p1592
I0
sS'pre3degree'
p1593
I0
sS'pre1author'
p1594
F0.5
sS'next3page'
p1595
I0
sS'next3web'
p1596
I0
sS'next4date'
p1597
I0
sg101
F0.4117647058823529
sg102
F0.058823529411764705
sg103
I0
sS'pre2author'
p1598
I0
sg105
I0
sS'next2page'
p1599
I0
sS'next3pubnum'
p1600
I0
sS'next1degree'
p1601
I0
sS'pre1date'
p1602
I0
sS'pre4phone'
p1603
I0
sg111
I0
sS'next4intro'
p1604
I0
sg113
F0.029411764705882353
sS'next2affiliation'
p1605
I0
sS'next4author'
p1606
I0
sS'next4note'
p1607
I0
sS'pre1pubnum'
p1608
I0
sg118
I0
sg119
I1
sS'next2address'
p1609
I0
sS'next2keyword'
p1610
I0
sS'next3note'
p1611
I0
sS'next3affiliation'
p1612
F0.5
sS'pre4degree'
p1613
I0
sS'next4email'
p1614
I0
sg126
F0.5833333333333334
sS'next1web'
p1615
I0
sS'next2email'
p1616
I0
sS'next2web'
p1617
I0
sg130
F0.0
sS'pre3page'
p1618
I0
sS'next3author'
p1619
I0
sS'pre1address'
p1620
I0
sS'pre2email'
p1621
I0
sS'next4web'
p1622
I0
sS'pre4author'
p1623
I0
sS'pre1title'
p1624
I0
sS'next4page'
p1625
I0
sg139
I1
sS'next4keyword'
p1626
I0
sg141
I1
sS'next1phone'
p1627
I0
sS'pre4intro'
p1628
I0
sS'pre3keyword'
p1629
I0
sS'pre2title'
p1630
F0.5
sS'pre3email'
p1631
I0
sS'pre4title'
p1632
I0
sS'next3date'
p1633
I0
sS'next2phone'
p1634
I0
sS'next1date'
p1635
I0
sg151
F0.0
sS'pre1intro'
p1636
I0
sS'pre2page'
p1637
I0
sS'next2abstract'
p1638
I0
sS'next4address'
p1639
I0
sS'next1title'
p1640
I0
sS'pre1page'
p1641
I0
sg158
I2
sg159
F0.41666666666666663
sg160
I0
sa(dp1642
S'pre4pubnum'
p1643
I0
sS'next1page'
p1644
I0
sS'pre2keyword'
p1645
I0
sS'next3address'
p1646
I0
sS'pre3affiliation'
p1647
I0
sS'pre1email'
p1648
I0
sS'next3intro'
p1649
I0
sS'pre4page'
p1650
I0
sg10
I0
sg11
F0.6666666666666666
sS'next4phone'
p1651
I0
sg13
S'"<degree> in the GRADUATE DIVISION of the  </degree>::line_number::4"'
p1652
sg15
I0
sg16
I0
sS'next1author'
p1653
I0
sg18
F0.0
sg19
I0
sg20
F0.0
sg21
F0.0
sS'pre3note'
p1654
I0
sS'next3phone'
p1655
I0
sS'pre2note'
p1656
I0
sS'next1address'
p1657
I0
sS'pre1affiliation'
p1658
F0.5
sS'pre2address'
p1659
I0
sS'pre1abstract'
p1660
I0
sS'next3abstract'
p1661
I0
sS'pre2affiliation'
p1662
I0
sS'pre3title'
p1663
I0
sg32
I0
sS'pre3pubnum'
p1664
I0
sg34
I239
sS'pre3date'
p1665
I0
sS'next4title'
p1666
I0
sS'next3email'
p1667
I0
sg38
I0
sS'next1abstract'
p1668
I0
sS'pre2phone'
p1669
I0
sS'pre4affiliation'
p1670
I0
sS'pre2intro'
p1671
I0
sS'next2date'
p1672
I0
sS'pre3intro'
p1673
I0
sS'next2note'
p1674
I0
sS'next3title'
p1675
I0
sS'next3keyword'
p1676
I0
sS'pre2pubnum'
p1677
I0
sS'next4affiliation'
p1678
I0
sS'next2pubnum'
p1679
I0
sS'pre4note'
p1680
I0
sg52
I0
sg53
F0.0
sS'pre3web'
p1681
I0
sS'next4pubnum'
p1682
I0
sS'next4degree'
p1683
I0
sg57
I0
sS'pre3author'
p1684
F0.5
sS'pre4web'
p1685
I0
sS'next1note'
p1686
I0
sS'pre3abstract'
p1687
I0
sg62
F0.3333333333333333
sS'pre1degree'
p1688
I0
sS'pre4abstract'
p1689
I0
sS'pre2degree'
p1690
F0.5
sS'next3degree'
p1691
I0
sS'next4abstract'
p1692
I0
sS'next1keyword'
p1693
I0
sS'pre3phone'
p1694
I0
sS'pre1note'
p1695
I0
sS'pre4keyword'
p1696
I0
sg72
I3
sS'pre4address'
p1697
I0
sS'pre2date'
p1698
I0
sS'next2title'
p1699
I0
sS'pre3address'
p1700
I0
sS'next1pubnum'
p1701
I0
sS'next2author'
p1702
I0
sS'pre2web'
p1703
I0
sS'next1email'
p1704
I0
sg81
S'degree'
p1705
sS'pre1web'
p1706
I0
sS'pre4email'
p1707
I0
sS'pre1keyword'
p1708
I0
sS'pre4date'
p1709
I0
sS'next1affiliation'
p1710
F0.5
sS'next2degree'
p1711
F0.5
sS'pre1phone'
p1712
I0
sg90
g91
sg92
I0
sS'pre2abstract'
p1713
I0
sS'next1intro'
p1714
I0
sS'next2intro'
p1715
I0
sS'pre3degree'
p1716
I0
sS'pre1author'
p1717
I0
sS'next3page'
p1718
I0
sS'next3web'
p1719
I0
sS'next4date'
p1720
I0
sg101
F0.33333333333333337
sg102
F0.0
sg103
I0
sS'pre2author'
p1721
I0
sg105
I0
sS'next2page'
p1722
I0
sS'next3pubnum'
p1723
I0
sS'next1degree'
p1724
I0
sS'pre1date'
p1725
I0
sS'pre4phone'
p1726
I0
sg111
I0
sS'next4intro'
p1727
I0
sg113
F0.16666666666666666
sS'next2affiliation'
p1728
I0
sS'next4author'
p1729
I0
sS'next4note'
p1730
I0
sS'pre1pubnum'
p1731
I0
sg118
I0
sg119
I0
sS'next2address'
p1732
I0
sS'next2keyword'
p1733
I0
sS'next3note'
p1734
I0
sS'next3affiliation'
p1735
I0
sS'pre4degree'
p1736
I0
sS'next4email'
p1737
I0
sg126
F0.6666666666666666
sS'next1web'
p1738
I0
sS'next2email'
p1739
I0
sS'next2web'
p1740
I0
sg130
F0.0
sS'pre3page'
p1741
I0
sS'next3author'
p1742
I0
sS'pre1address'
p1743
I0
sS'pre2email'
p1744
I0
sS'next4web'
p1745
I0
sS'pre4author'
p1746
I0
sS'pre1title'
p1747
I0
sS'next4page'
p1748
F0.5
sg139
I0
sS'next4keyword'
p1749
I0
sg141
I1
sS'next1phone'
p1750
I0
sS'pre4intro'
p1751
I0
sS'pre3keyword'
p1752
I0
sS'pre2title'
p1753
I0
sS'pre3email'
p1754
I0
sS'pre4title'
p1755
F0.5
sS'next3date'
p1756
F0.5
sS'next2phone'
p1757
I0
sS'next1date'
p1758
I0
sg151
F0.0
sS'pre1intro'
p1759
I0
sS'pre2page'
p1760
I0
sS'next2abstract'
p1761
I0
sS'next4address'
p1762
I0
sS'next1title'
p1763
I0
sS'pre1page'
p1764
I0
sg158
I0
sg159
F0.33333333333333337
sg160
I0
sa(dp1765
S'pre4pubnum'
p1766
I0
sS'next1page'
p1767
I0
sS'pre2keyword'
p1768
I0
sS'next3address'
p1769
I0
sS'pre3affiliation'
p1770
F0.5
sS'pre1email'
p1771
I0
sS'next3intro'
p1772
I0
sS'pre4page'
p1773
I0
sg10
I3
sg11
F0.7857142857142857
sS'next4phone'
p1774
I0
sg13
S'"<degree> Committee in charge: Professor Alberto L. Sangiovanni-Vincentelli Professor Robert K. Brayton Professor Phillip Colella  </degree>::line_number::6"'
p1775
sg15
I0
sg16
I0
sS'next1author'
p1776
I0
sg18
F0.0
sg19
I0
sg20
F0.0
sg21
F0.0
sS'pre3note'
p1777
I0
sS'next3phone'
p1778
I0
sS'pre2note'
p1779
I0
sS'next1address'
p1780
I0
sS'pre1affiliation'
p1781
F0.5
sS'pre2address'
p1782
I0
sS'pre1abstract'
p1783
I0
sS'next3abstract'
p1784
I0
sS'pre2affiliation'
p1785
I0
sS'pre3title'
p1786
I0
sg32
I0
sS'pre3pubnum'
p1787
I0
sg34
I239
sS'pre3date'
p1788
I0
sS'next4title'
p1789
I0
sS'next3email'
p1790
I0
sg38
I0
sS'next1abstract'
p1791
I0
sS'pre2phone'
p1792
I0
sS'pre4affiliation'
p1793
I0
sS'pre2intro'
p1794
I0
sS'next2date'
p1795
I0
sS'pre3intro'
p1796
I0
sS'next2note'
p1797
I0
sS'next3title'
p1798
I0
sS'next3keyword'
p1799
I0
sS'pre2pubnum'
p1800
I0
sS'next4affiliation'
p1801
I0
sS'next2pubnum'
p1802
I0
sS'pre4note'
p1803
I0
sg52
I0
sg53
F0.0
sS'pre3web'
p1804
I0
sS'next4pubnum'
p1805
I0
sS'next4degree'
p1806
I0
sg57
I0
sS'pre3author'
p1807
I0
sS'pre4web'
p1808
I0
sS'next1note'
p1809
I0
sS'pre3abstract'
p1810
I0
sg62
F0.2857142857142857
sS'pre1degree'
p1811
I0
sS'pre4abstract'
p1812
I0
sS'pre2degree'
p1813
F0.5
sS'next3degree'
p1814
I0
sS'next4abstract'
p1815
I0
sS'next1keyword'
p1816
I0
sS'pre3phone'
p1817
I0
sS'pre1note'
p1818
I0
sS'pre4keyword'
p1819
I0
sg72
I5
sS'pre4address'
p1820
I0
sS'pre2date'
p1821
I0
sS'next2title'
p1822
I0
sS'pre3address'
p1823
I0
sS'next1pubnum'
p1824
I0
sS'next2author'
p1825
I0
sS'pre2web'
p1826
I0
sS'next1email'
p1827
I0
sg81
S'degree'
p1828
sS'pre1web'
p1829
I0
sS'pre4email'
p1830
I0
sS'pre1keyword'
p1831
I0
sS'pre4date'
p1832
I0
sS'next1affiliation'
p1833
I0
sS'next2degree'
p1834
I0
sS'pre1phone'
p1835
I0
sg90
g1342
sg92
I0
sS'pre2abstract'
p1836
I0
sS'next1intro'
p1837
I0
sS'next2intro'
p1838
I0
sS'pre3degree'
p1839
I0
sS'pre1author'
p1840
I0
sS'next3page'
p1841
I0
sS'next3web'
p1842
I0
sS'next4date'
p1843
I0
sg101
F0.2142857142857143
sg102
F0.0
sg103
I0
sS'pre2author'
p1844
I0
sg105
I0
sS'next2page'
p1845
F0.5
sS'next3pubnum'
p1846
I0
sS'next1degree'
p1847
I0
sS'pre1date'
p1848
I0
sS'pre4phone'
p1849
I0
sg111
I0
sS'next4intro'
p1850
I0
sg113
F0.0
sS'next2affiliation'
p1851
I0
sS'next4author'
p1852
I0
sS'next4note'
p1853
I0
sS'pre1pubnum'
p1854
I0
sg118
I0
sg119
I0
sS'next2address'
p1855
I0
sS'next2keyword'
p1856
I0
sS'next3note'
p1857
I0
sS'next3affiliation'
p1858
I0
sS'pre4degree'
p1859
F0.5
sS'next4email'
p1860
I0
sg126
F0.7692307692307693
sS'next1web'
p1861
I0
sS'next2email'
p1862
I0
sS'next2web'
p1863
I0
sg130
F0.0
sS'pre3page'
p1864
I0
sS'next3author'
p1865
I0
sS'pre1address'
p1866
I0
sS'pre2email'
p1867
I0
sS'next4web'
p1868
I0
sS'pre4author'
p1869
I0
sS'pre1title'
p1870
I0
sS'next4page'
p1871
I0
sg139
I2
sS'next4keyword'
p1872
I0
sg141
I0
sS'next1phone'
p1873
I0
sS'pre4intro'
p1874
I0
sS'pre3keyword'
p1875
I0
sS'pre2title'
p1876
I0
sS'pre3email'
p1877
I0
sS'pre4title'
p1878
I0
sS'next3date'
p1879
I0
sS'next2phone'
p1880
I0
sS'next1date'
p1881
F0.5
sg151
F0.0
sS'pre1intro'
p1882
I0
sS'pre2page'
p1883
I0
sS'next2abstract'
p1884
I0
sS'next4address'
p1885
I0
sS'next1title'
p1886
I0
sS'pre1page'
p1887
I0
sg158
I0
sg159
F0.23076923076923073
sg160
I0
sa(dp1888
S'pre4pubnum'
p1889
I0
sS'next1page'
p1890
I0
sS'pre2keyword'
p1891
I0
sS'next3address'
p1892
I0
sS'pre3affiliation'
p1893
I0
sS'pre1email'
p1894
I0
sS'next3intro'
p1895
I0
sS'pre4page'
p1896
I0
sg10
I0
sg11
F0.6774193548387096
sS'next4phone'
p1897
I0
sg13
S'"<degree> Submitted to the Department of Electrical Engineering and Computer Science in partial fulfillment of the requirements for the degree of Master of Engineering in Electrical Engineering and Computer Science at the  </degree>::line_number::2"'
p1898
sg15
I0
sg16
I0
sS'next1author'
p1899
I0
sg18
F0.0
sg19
I0
sg20
F0.0
sg21
F0.0
sS'pre3note'
p1900
I0
sS'next3phone'
p1901
I0
sS'pre2note'
p1902
I0
sS'next1address'
p1903
I0
sS'pre1affiliation'
p1904
I0
sS'pre2address'
p1905
I0
sS'pre1abstract'
p1906
I0
sS'next3abstract'
p1907
I0
sS'pre2affiliation'
p1908
I0
sS'pre3title'
p1909
I0
sg32
I0
sS'pre3pubnum'
p1910
I0
sg34
I252
sS'pre3date'
p1911
I0
sS'next4title'
p1912
I0
sS'next3email'
p1913
I0
sg38
I0
sS'next1abstract'
p1914
I0
sS'pre2phone'
p1915
I0
sS'pre4affiliation'
p1916
I0
sS'pre2intro'
p1917
I0
sS'next2date'
p1918
F0.5
sS'pre3intro'
p1919
I0
sS'next2note'
p1920
I0
sS'next3title'
p1921
I0
sS'next3keyword'
p1922
I0
sS'pre2pubnum'
p1923
I0
sS'next4affiliation'
p1924
I0
sS'next2pubnum'
p1925
I0
sS'pre4note'
p1926
I0
sg52
I0
sg53
F0.0
sS'pre3web'
p1927
I0
sS'next4pubnum'
p1928
I0
sS'next4degree'
p1929
I0
sg57
I0
sS'pre3author'
p1930
I0
sS'pre4web'
p1931
I0
sS'next1note'
p1932
I0
sS'pre3abstract'
p1933
I0
sg62
F0.3870967741935484
sS'pre1degree'
p1934
I0
sS'pre4abstract'
p1935
I0
sS'pre2degree'
p1936
I0
sS'next3degree'
p1937
F0.5
sS'next4abstract'
p1938
I0
sS'next1keyword'
p1939
I0
sS'pre3phone'
p1940
I0
sS'pre1note'
p1941
I0
sS'pre4keyword'
p1942
I0
sg72
I10
sS'pre4address'
p1943
I0
sS'pre2date'
p1944
I0
sS'next2title'
p1945
I0
sS'pre3address'
p1946
I0
sS'next1pubnum'
p1947
I0
sS'next2author'
p1948
I0
sS'pre2web'
p1949
I0
sS'next1email'
p1950
I0
sg81
S'degree'
p1951
sS'pre1web'
p1952
I0
sS'pre4email'
p1953
I0
sS'pre1keyword'
p1954
I0
sS'pre4date'
p1955
I0
sS'next1affiliation'
p1956
F0.5
sS'next2degree'
p1957
I0
sS'pre1phone'
p1958
I0
sg90
g726
sg92
I0
sS'pre2abstract'
p1959
I0
sS'next1intro'
p1960
I0
sS'next2intro'
p1961
I0
sS'pre3degree'
p1962
I0
sS'pre1author'
p1963
F0.5
sS'next3page'
p1964
I0
sS'next3web'
p1965
I0
sS'next4date'
p1966
I0
sg101
F0.32258064516129037
sg102
F0.25806451612903225
sg103
I0
sS'pre2author'
p1967
I0
sg105
I0
sS'next2page'
p1968
I0
sS'next3pubnum'
p1969
I0
sS'next1degree'
p1970
I0
sS'pre1date'
p1971
I0
sS'pre4phone'
p1972
I0
sg111
I0
sS'next4intro'
p1973
I0
sg113
F0.03225806451612903
sS'next2affiliation'
p1974
I0
sS'next4author'
p1975
I0
sS'next4note'
p1976
I0
sS'pre1pubnum'
p1977
I0
sg118
I0
sg119
I0
sS'next2address'
p1978
I0
sS'next2keyword'
p1979
I0
sS'next3note'
p1980
I0
sS'next3affiliation'
p1981
I0
sS'pre4degree'
p1982
I0
sS'next4email'
p1983
I0
sg126
F0.8461538461538461
sS'next1web'
p1984
I0
sS'next2email'
p1985
I0
sS'next2web'
p1986
I0
sg130
F0.0
sS'pre3page'
p1987
I0
sS'next3author'
p1988
I0
sS'pre1address'
p1989
I0
sS'pre2email'
p1990
I0
sS'next4web'
p1991
I0
sS'pre4author'
p1992
I0
sS'pre1title'
p1993
I0
sS'next4page'
p1994
F0.5
sg139
I0
sS'next4keyword'
p1995
I0
sg141
I1
sS'next1phone'
p1996
I0
sS'pre4intro'
p1997
I0
sS'pre3keyword'
p1998
I0
sS'pre2title'
p1999
F0.5
sS'pre3email'
p2000
I0
sS'pre4title'
p2001
I0
sS'next3date'
p2002
I0
sS'next2phone'
p2003
I0
sS'next1date'
p2004
I0
sg151
F0.0
sS'pre1intro'
p2005
I0
sS'pre2page'
p2006
I0
sS'next2abstract'
p2007
I0
sS'next4address'
p2008
I0
sS'next1title'
p2009
I0
sS'pre1page'
p2010
I0
sg158
I8
sg159
F0.15384615384615385
sg160
I0
sa(dp2011
S'pre4pubnum'
p2012
I0
sS'next1page'
p2013
F0.5
sS'pre2keyword'
p2014
I0
sS'next3address'
p2015
I0
sS'pre3affiliation'
p2016
I0
sS'pre1email'
p2017
I0
sS'next3intro'
p2018
I0
sS'pre4page'
p2019
I0
sg10
I4
sg11
F0.1342281879194631
sS'next4phone'
p2020
I0
sg13
S'"<degree> c Jerry E. Pratt, MCMXCV. All rights reserved. The author hereby grants to MIT permission to reproduce and distribute publicly paper and electronic copies of this thesis document in whole or in part, and to grant others the right to do so. Author : : : : : : : : : : : : : : : : : : : : : : : : : : : : : : : : : : : : : : : : : : : : : : : : : : : : : : : : : : : : : : : : : : : : : : : : : : : Department of Electrical Engineering and Computer Science August 25, 1995 Certified by : : : : : : : : : : : : : : : : : : : : : : : : : : : : : : : : : : : : : : : : : : : : : : : : : : : : : : : : : : : : : : : : : : : : : : Gill A. Pratt Assistant Professor of Electrical Engineering and Computer Science Thesis Supervisor Accepted by : : : : : : : : : : : : : : : : : : : : : : : : : : : : : : : : : : : : : : : : : : : : : : : : : : : : : : : : : : : : : : : : : : : : : : F. R. Morgenthaler Chairman, Department Committee on Graduate Theses  </degree>::line_number::5"'
p2021
sg15
I0
sg16
I0
sS'next1author'
p2022
I0
sg18
F0.00927357032457496
sg19
I0
sg20
F0.003355704697986577
sg21
F0.003355704697986577
sS'pre3note'
p2023
I0
sS'next3phone'
p2024
I0
sS'pre2note'
p2025
I0
sS'next1address'
p2026
I0
sS'pre1affiliation'
p2027
I0
sS'pre2address'
p2028
I0
sS'pre1abstract'
p2029
I0
sS'next3abstract'
p2030
I0
sS'pre2affiliation'
p2031
F0.5
sS'pre3title'
p2032
I0
sg32
I0
sS'pre3pubnum'
p2033
I0
sg34
I252
sS'pre3date'
p2034
I0
sS'next4title'
p2035
I0
sS'next3email'
p2036
I0
sg38
I0
sS'next1abstract'
p2037
I0
sS'pre2phone'
p2038
I0
sS'pre4affiliation'
p2039
I0
sS'pre2intro'
p2040
I0
sS'next2date'
p2041
I0
sS'pre3intro'
p2042
I0
sS'next2note'
p2043
I0
sS'next3title'
p2044
I0
sS'next3keyword'
p2045
I0
sS'pre2pubnum'
p2046
I0
sS'next4affiliation'
p2047
I0
sS'next2pubnum'
p2048
I0
sS'pre4note'
p2049
I0
sg52
I1
sg53
F0.006711409395973154
sS'pre3web'
p2050
I0
sS'next4pubnum'
p2051
I0
sS'next4degree'
p2052
I0
sg57
I0
sS'pre3author'
p2053
I0
sS'pre4web'
p2054
I0
sS'next1note'
p2055
I0
sS'pre3abstract'
p2056
I0
sg62
F0.08053691275167785
sS'pre1degree'
p2057
I0
sS'pre4abstract'
p2058
I0
sS'pre2degree'
p2059
I0
sS'next3degree'
p2060
I0
sS'next4abstract'
p2061
I0
sS'next1keyword'
p2062
I0
sS'pre3phone'
p2063
I0
sS'pre1note'
p2064
I0
sS'pre4keyword'
p2065
I0
sg72
I11
sS'pre4address'
p2066
I0
sS'pre2date'
p2067
I0
sS'next2title'
p2068
I0
sS'pre3address'
p2069
I0
sS'next1pubnum'
p2070
I0
sS'next2author'
p2071
I0
sS'pre2web'
p2072
I0
sS'next1email'
p2073
I0
sg81
S'degree'
p2074
sS'pre1web'
p2075
I0
sS'pre4email'
p2076
I0
sS'pre1keyword'
p2077
I0
sS'pre4date'
p2078
I0
sS'next1affiliation'
p2079
I0
sS'next2degree'
p2080
I0
sS'pre1phone'
p2081
I0
sg90
S'5'
p2082
sg92
I0
sS'pre2abstract'
p2083
I0
sS'next1intro'
p2084
I0
sS'next2intro'
p2085
I0
sS'pre3degree'
p2086
F0.5
sS'pre1author'
p2087
I0
sS'next3page'
p2088
I0
sS'next3web'
p2089
I0
sS'next4date'
p2090
I0
sg101
F0.8657718120805369
sg102
F0.04697986577181208
sg103
I0
sS'pre2author'
p2091
I0
sg105
I0
sS'next2page'
p2092
I0
sS'next3pubnum'
p2093
I0
sS'next1degree'
p2094
I0
sS'pre1date'
p2095
F0.5
sS'pre4phone'
p2096
I0
sg111
I1
sS'next4intro'
p2097
I0
sg113
F0.006711409395973154
sS'next2affiliation'
p2098
I0
sS'next4author'
p2099
I0
sS'next4note'
p2100
I0
sS'pre1pubnum'
p2101
I0
sg118
I0
sg119
I0
sS'next2address'
p2102
I0
sS'next2keyword'
p2103
I0
sS'next3note'
p2104
I0
sS'next3affiliation'
p2105
I0
sS'pre4degree'
p2106
I0
sS'next4email'
p2107
I0
sg126
F0.6944444444444444
sS'next1web'
p2108
I0
sS'next2email'
p2109
I0
sS'next2web'
p2110
I0
sg130
F0.0
sS'pre3page'
p2111
I0
sS'next3author'
p2112
I0
sS'pre1address'
p2113
I0
sS'pre2email'
p2114
I0
sS'next4web'
p2115
I0
sS'pre4author'
p2116
F0.5
sS'pre1title'
p2117
I0
sS'next4page'
p2118
I0
sg139
I4
sS'next4keyword'
p2119
I0
sg141
I2
sS'next1phone'
p2120
I0
sS'pre4intro'
p2121
I0
sS'pre3keyword'
p2122
I0
sS'pre2title'
p2123
I0
sS'pre3email'
p2124
I0
sS'pre4title'
p2125
I0
sS'next3date'
p2126
I0
sS'next2phone'
p2127
I0
sS'next1date'
p2128
I0
sg151
F0.0
sS'pre1intro'
p2129
I0
sS'pre2page'
p2130
I0
sS'next2abstract'
p2131
I0
sS'next4address'
p2132
I0
sS'next1title'
p2133
I0
sS'pre1page'
p2134
I0
sg158
I14
sg159
F0.3055555555555556
sg160
I0
sa(dp2135
S'pre4pubnum'
p2136
I0
sS'next1page'
p2137
I0
sS'pre2keyword'
p2138
I0
sS'next3address'
p2139
I0
sS'pre3affiliation'
p2140
F0.5
sS'pre1email'
p2141
I0
sS'next3intro'
p2142
I0
sS'pre4page'
p2143
I0
sg10
I6
sg11
F0.5964912280701754
sS'next4phone'
p2144
I0
sg13
S'"<degree> A Thesis Submitted in Partial Fulfillment of the Requirements for the Degree Doctor of Philosophy Approved, Thesis Committee: Ken Kennedy, Noah Harding Professor Computer Science John Mellor-Crummey, Faculty Fellow Computer Science William W. Symes, Professor Computational and Applied Mathematics R. Gregg Brickner, Technical Staff Member Los Alamos National Laboratory Houston, Texas  </degree>::line_number::3"'
p2145
sg15
I0
sg16
I0
sS'next1author'
p2146
I0
sg18
F0.0
sg19
I0
sg20
F0.0
sg21
F0.05263157894736842
sS'pre3note'
p2147
I0
sS'next3phone'
p2148
I0
sS'pre2note'
p2149
I0
sS'next1address'
p2150
I0
sS'pre1affiliation'
p2151
I0
sS'pre2address'
p2152
I0
sS'pre1abstract'
p2153
I0
sS'next3abstract'
p2154
I0
sS'pre2affiliation'
p2155
I0
sS'pre3title'
p2156
I0
sg32
I0
sS'pre3pubnum'
p2157
I0
sg34
I261
sS'pre3date'
p2158
I0
sS'next4title'
p2159
I0
sS'next3email'
p2160
I0
sg38
I0
sS'next1abstract'
p2161
I0
sS'pre2phone'
p2162
I0
sS'pre4affiliation'
p2163
I0
sS'pre2intro'
p2164
I0
sS'next2date'
p2165
I0
sS'pre3intro'
p2166
I0
sS'next2note'
p2167
I0
sS'next3title'
p2168
I0
sS'next3keyword'
p2169
I0
sS'pre2pubnum'
p2170
I0
sS'next4affiliation'
p2171
I0
sS'next2pubnum'
p2172
I0
sS'pre4note'
p2173
I0
sg52
I3
sg53
F0.0
sS'pre3web'
p2174
I0
sS'next4pubnum'
p2175
I0
sS'next4degree'
p2176
I0
sg57
I0
sS'pre3author'
p2177
I0
sS'pre4web'
p2178
I0
sS'next1note'
p2179
I0
sS'pre3abstract'
p2180
I0
sg62
F0.21052631578947367
sS'pre1degree'
p2181
I0
sS'pre4abstract'
p2182
I0
sS'pre2degree'
p2183
I0
sS'next3degree'
p2184
I0
sS'next4abstract'
p2185
I0
sS'next1keyword'
p2186
I0
sS'pre3phone'
p2187
I0
sS'pre1note'
p2188
I0
sS'pre4keyword'
p2189
I0
sg72
I10
sS'pre4address'
p2190
I0
sS'pre2date'
p2191
I0
sS'next2title'
p2192
I0
sS'pre3address'
p2193
I0
sS'next1pubnum'
p2194
I0
sS'next2author'
p2195
I0
sS'pre2web'
p2196
I0
sS'next1email'
p2197
I0
sg81
S'degree'
p2198
sS'pre1web'
p2199
I0
sS'pre4email'
p2200
I0
sS'pre1keyword'
p2201
I0
sS'pre4date'
p2202
I0
sS'next1affiliation'
p2203
I0
sS'next2degree'
p2204
I0
sS'pre1phone'
p2205
I0
sg90
g602
sg92
I1
sS'pre2abstract'
p2206
I0
sS'next1intro'
p2207
I0
sS'next2intro'
p2208
I0
sS'pre3degree'
p2209
I0
sS'pre1author'
p2210
F0.5
sS'next3page'
p2211
I0
sS'next3web'
p2212
I0
sS'next4date'
p2213
I0
sg101
F0.4035087719298246
sg102
F0.10526315789473684
sg103
I0
sS'pre2author'
p2214
I0
sg105
I0
sS'next2page'
p2215
F0.5
sS'next3pubnum'
p2216
I0
sS'next1degree'
p2217
I0
sS'pre1date'
p2218
I0
sS'pre4phone'
p2219
I0
sg111
I0
sS'next4intro'
p2220
I0
sg113
F0.017543859649122806
sS'next2affiliation'
p2221
I0
sS'next4author'
p2222
I0
sS'next4note'
p2223
I0
sS'pre1pubnum'
p2224
I0
sg118
I0
sg119
I1
sS'next2address'
p2225
I0
sS'next2keyword'
p2226
I0
sS'next3note'
p2227
I0
sS'next3affiliation'
p2228
I0
sS'pre4degree'
p2229
I0
sS'next4email'
p2230
I0
sg126
F0.6888888888888889
sS'next1web'
p2231
I0
sS'next2email'
p2232
I0
sS'next2web'
p2233
I0
sg130
F0.0
sS'pre3page'
p2234
I0
sS'next3author'
p2235
I0
sS'pre1address'
p2236
I0
sS'pre2email'
p2237
I0
sS'next4web'
p2238
I0
sS'pre4author'
p2239
I0
sS'pre1title'
p2240
I0
sS'next4page'
p2241
I0
sg139
I3
sS'next4keyword'
p2242
I0
sg141
I1
sS'next1phone'
p2243
I0
sS'pre4intro'
p2244
I0
sS'pre3keyword'
p2245
I0
sS'pre2title'
p2246
F0.5
sS'pre3email'
p2247
I0
sS'pre4title'
p2248
I0
sS'next3date'
p2249
I0
sS'next2phone'
p2250
I0
sS'next1date'
p2251
F0.5
sg151
F0.0
sS'pre1intro'
p2252
I0
sS'pre2page'
p2253
I0
sS'next2abstract'
p2254
I0
sS'next4address'
p2255
I0
sS'next1title'
p2256
I0
sS'pre1page'
p2257
I0
sg158
I6
sg159
F0.3111111111111111
sg160
I0
sa(dp2258
S'pre4pubnum'
p2259
I0
sS'next1page'
p2260
I0
sS'pre2keyword'
p2261
I0
sS'next3address'
p2262
I0
sS'pre3affiliation'
p2263
I0
sS'pre1email'
p2264
I0
sS'next3intro'
p2265
I0
sS'pre4page'
p2266
I0
sg10
I3
sg11
F0.5365853658536586
sS'next4phone'
p2267
I0
sg13
S'"<degree> Laurea, Universit a di Padova (1992) Dottorato di Ricerca, Universit a di Padova (1996) Submitted to the Department of Electrical Engineering and Computer Science in partial fulfillment of the requirements for the degree of Master of Science at the  </degree>::line_number::2"'
p2268
sg15
I0
sg16
I0
sS'next1author'
p2269
I0
sg18
F0.03827751196172249
sg19
I0
sg20
F0.0
sg21
F0.0
sS'pre3note'
p2270
I0
sS'next3phone'
p2271
I0
sS'pre2note'
p2272
I0
sS'next1address'
p2273
I0
sS'pre1affiliation'
p2274
I0
sS'pre2address'
p2275
I0
sS'pre1abstract'
p2276
I0
sS'next3abstract'
p2277
I0
sS'pre2affiliation'
p2278
I0
sS'pre3title'
p2279
I0
sg32
I0
sS'pre3pubnum'
p2280
I0
sg34
I265
sS'pre3date'
p2281
I0
sS'next4title'
p2282
I0
sS'next3email'
p2283
I0
sg38
I0
sS'next1abstract'
p2284
I0
sS'pre2phone'
p2285
I0
sS'pre4affiliation'
p2286
I0
sS'pre2intro'
p2287
I0
sS'next2date'
p2288
F0.5
sS'pre3intro'
p2289
I0
sS'next2note'
p2290
I0
sS'next3title'
p2291
I0
sS'next3keyword'
p2292
I0
sS'pre2pubnum'
p2293
I0
sS'next4affiliation'
p2294
I0
sS'next2pubnum'
p2295
I0
sS'pre4note'
p2296
I0
sg52
I0
sg53
F0.0
sS'pre3web'
p2297
I0
sS'next4pubnum'
p2298
I0
sS'next4degree'
p2299
I0
sg57
I0
sS'pre3author'
p2300
I0
sS'pre4web'
p2301
I0
sS'next1note'
p2302
I0
sS'pre3abstract'
p2303
I0
sg62
F0.2682926829268293
sS'pre1degree'
p2304
I0
sS'pre4abstract'
p2305
I0
sS'pre2degree'
p2306
I0
sS'next3degree'
p2307
F0.5
sS'next4abstract'
p2308
I0
sS'next1keyword'
p2309
I0
sS'pre3phone'
p2310
I0
sS'pre1note'
p2311
I0
sS'pre4keyword'
p2312
I0
sg72
I8
sS'pre4address'
p2313
I0
sS'pre2date'
p2314
I0
sS'next2title'
p2315
I0
sS'pre3address'
p2316
I0
sS'next1pubnum'
p2317
I0
sS'next2author'
p2318
I0
sS'pre2web'
p2319
I0
sS'next1email'
p2320
I0
sg81
S'degree'
p2321
sS'pre1web'
p2322
I0
sS'pre4email'
p2323
I0
sS'pre1keyword'
p2324
I0
sS'pre4date'
p2325
I0
sS'next1affiliation'
p2326
F0.5
sS'next2degree'
p2327
I0
sS'pre1phone'
p2328
I0
sg90
g726
sg92
I0
sS'pre2abstract'
p2329
I0
sS'next1intro'
p2330
I0
sS'next2intro'
p2331
I0
sS'pre3degree'
p2332
I0
sS'pre1author'
p2333
F0.5
sS'next3page'
p2334
I0
sS'next3web'
p2335
I0
sS'next4date'
p2336
I0
sg101
F0.46341463414634143
sg102
F0.12195121951219512
sg103
I0
sS'pre2author'
p2337
I0
sg105
I0
sS'next2page'
p2338
I0
sS'next3pubnum'
p2339
I0
sS'next1degree'
p2340
I0
sS'pre1date'
p2341
I0
sS'pre4phone'
p2342
I0
sg111
I0
sS'next4intro'
p2343
I0
sg113
F0.024390243902439025
sS'next2affiliation'
p2344
I0
sS'next4author'
p2345
I0
sS'next4note'
p2346
I0
sS'pre1pubnum'
p2347
I0
sg118
I0
sg119
I0
sS'next2address'
p2348
I0
sS'next2keyword'
p2349
I0
sS'next3note'
p2350
I0
sS'next3affiliation'
p2351
I0
sS'pre4degree'
p2352
I0
sS'next4email'
p2353
I0
sg126
F0.625
sS'next1web'
p2354
I0
sS'next2email'
p2355
I0
sS'next2web'
p2356
I0
sg130
F0.0
sS'pre3page'
p2357
I0
sS'next3author'
p2358
I0
sS'pre1address'
p2359
I0
sS'pre2email'
p2360
I0
sS'next4web'
p2361
I0
sS'pre4author'
p2362
I0
sS'pre1title'
p2363
I0
sS'next4page'
p2364
F0.5
sg139
I0
sS'next4keyword'
p2365
I0
sg141
I1
sS'next1phone'
p2366
I0
sS'pre4intro'
p2367
I0
sS'pre3keyword'
p2368
I0
sS'pre2title'
p2369
F0.5
sS'pre3email'
p2370
I0
sS'pre4title'
p2371
I0
sS'next3date'
p2372
I0
sS'next2phone'
p2373
I0
sS'next1date'
p2374
I0
sg151
F0.0
sS'pre1intro'
p2375
I0
sS'pre2page'
p2376
I0
sS'next2abstract'
p2377
I0
sS'next4address'
p2378
I0
sS'next1title'
p2379
I0
sS'pre1page'
p2380
I0
sg158
I5
sg159
F0.375
sg160
I0
sa(dp2381
S'pre4pubnum'
p2382
I0
sS'next1page'
p2383
F0.5
sS'pre2keyword'
p2384
I0
sS'next3address'
p2385
I0
sS'pre3affiliation'
p2386
I0
sS'pre1email'
p2387
I0
sS'next3intro'
p2388
I0
sS'pre4page'
p2389
I0
sg10
I3
sg11
F0.12941176470588237
sS'next4phone'
p2390
I0
sg13
S'"<degree> c Matteo Frigo, MCMXCVII. All rights reserved. The author hereby grants to MIT permission to reproduce and distribute publicly paper and electronic copies of this thesis document in whole or in part, and to grant others the right to do so. Author . . . . . . . . . . . . . . . . . . . . . . . . . . . . . . . . . . . . . . . . . . . . . . . . . . . . . . . . . . . . . Department of Electrical Engineering and Computer Science January 28, 1998 Certified by . . . . . . . . . . . . . . . . . . . . . . . . . . . . . . . . . . . . . . . . . . . . . . . . . . . . . . . . . Charles E. Leiserson Professor of Computer Science and Engineering Thesis Supervisor Accepted by . . . . . . . . . . . . . . . . . . . . . . . . . . . . . . . . . . . . . . . . . . . . . . . . . . . . . . . . . PUT NAME HERE Chairman, Departmental Committee on Graduate Students  </degree>::line_number::5"'
p2391
sg15
I0
sg16
I0
sS'next1author'
p2392
I0
sg18
F0.010067114093959731
sg19
I0
sg20
F0.00392156862745098
sg21
F0.00392156862745098
sS'pre3note'
p2393
I0
sS'next3phone'
p2394
I0
sS'pre2note'
p2395
I0
sS'next1address'
p2396
I0
sS'pre1affiliation'
p2397
I0
sS'pre2address'
p2398
I0
sS'pre1abstract'
p2399
I0
sS'next3abstract'
p2400
I0
sS'pre2affiliation'
p2401
F0.5
sS'pre3title'
p2402
I0
sg32
I0
sS'pre3pubnum'
p2403
I0
sg34
I265
sS'pre3date'
p2404
I0
sS'next4title'
p2405
I0
sS'next3email'
p2406
I0
sg38
I0
sS'next1abstract'
p2407
I0
sS'pre2phone'
p2408
I0
sS'pre4affiliation'
p2409
I0
sS'pre2intro'
p2410
I0
sS'next2date'
p2411
I0
sS'pre3intro'
p2412
I0
sS'next2note'
p2413
I0
sS'next3title'
p2414
I0
sS'next3keyword'
p2415
I0
sS'pre2pubnum'
p2416
I0
sS'next4affiliation'
p2417
I0
sS'next2pubnum'
p2418
I0
sS'pre4note'
p2419
I0
sg52
I1
sg53
F0.00784313725490196
sS'pre3web'
p2420
I0
sS'next4pubnum'
p2421
I0
sS'next4degree'
p2422
I0
sg57
I0
sS'pre3author'
p2423
I0
sS'pre4web'
p2424
I0
sS'next1note'
p2425
I0
sS'pre3abstract'
p2426
I0
sg62
F0.08627450980392157
sS'pre1degree'
p2427
I0
sS'pre4abstract'
p2428
I0
sS'pre2degree'
p2429
I0
sS'next3degree'
p2430
I0
sS'next4abstract'
p2431
I0
sS'next1keyword'
p2432
I0
sS'pre3phone'
p2433
I0
sS'pre1note'
p2434
I0
sS'pre4keyword'
p2435
I0
sg72
I10
sS'pre4address'
p2436
I0
sS'pre2date'
p2437
I0
sS'next2title'
p2438
I0
sS'pre3address'
p2439
I0
sS'next1pubnum'
p2440
I0
sS'next2author'
p2441
I0
sS'pre2web'
p2442
I0
sS'next1email'
p2443
I0
sg81
S'degree'
p2444
sS'pre1web'
p2445
I0
sS'pre4email'
p2446
I0
sS'pre1keyword'
p2447
I0
sS'pre4date'
p2448
I0
sS'next1affiliation'
p2449
I0
sS'next2degree'
p2450
I0
sS'pre1phone'
p2451
I0
sg90
g2082
sg92
I0
sS'pre2abstract'
p2452
I0
sS'next1intro'
p2453
I0
sS'next2intro'
p2454
I0
sS'pre3degree'
p2455
F0.5
sS'pre1author'
p2456
I0
sS'next3page'
p2457
I0
sS'next3web'
p2458
I0
sS'next4date'
p2459
I0
sg101
F0.8705882352941177
sg102
F0.050980392156862744
sg103
I0
sS'pre2author'
p2460
I0
sg105
I0
sS'next2page'
p2461
I0
sS'next3pubnum'
p2462
I0
sS'next1degree'
p2463
I0
sS'pre1date'
p2464
F0.5
sS'pre4phone'
p2465
I0
sg111
I1
sS'next4intro'
p2466
I0
sg113
F0.00392156862745098
sS'next2affiliation'
p2467
I0
sS'next4author'
p2468
I0
sS'next4note'
p2469
I0
sS'pre1pubnum'
p2470
I0
sg118
I0
sg119
I0
sS'next2address'
p2471
I0
sS'next2keyword'
p2472
I0
sS'next3note'
p2473
I0
sS'next3affiliation'
p2474
I0
sS'pre4degree'
p2475
I0
sS'next4email'
p2476
I0
sg126
F0.5454545454545454
sS'next1web'
p2477
I0
sS'next2email'
p2478
I0
sS'next2web'
p2479
I0
sg130
F0.0
sS'pre3page'
p2480
I0
sS'next3author'
p2481
I0
sS'pre1address'
p2482
I0
sS'pre2email'
p2483
I0
sS'next4web'
p2484
I0
sS'pre4author'
p2485
F0.5
sS'pre1title'
p2486
I0
sS'next4page'
p2487
I0
sg139
I1
sS'next4keyword'
p2488
I0
sg141
I1
sS'next1phone'
p2489
I0
sS'pre4intro'
p2490
I0
sS'pre3keyword'
p2491
I0
sS'pre2title'
p2492
I0
sS'pre3email'
p2493
I0
sS'pre4title'
p2494
I0
sS'next3date'
p2495
I0
sS'next2phone'
p2496
I0
sS'next1date'
p2497
I0
sg151
F0.0
sS'pre1intro'
p2498
I0
sS'pre2page'
p2499
I0
sS'next2abstract'
p2500
I0
sS'next4address'
p2501
I0
sS'next1title'
p2502
I0
sS'pre1page'
p2503
I0
sg158
I13
sg159
F0.4545454545454546
sg160
I0
sa(dp2504
S'pre4pubnum'
p2505
I0
sS'next1page'
p2506
I0
sS'pre2keyword'
p2507
I0
sS'next3address'
p2508
I0
sS'pre3affiliation'
p2509
I0
sS'pre1email'
p2510
I0
sS'next3intro'
p2511
I0
sS'pre4page'
p2512
I0
sg10
I0
sg11
F0.6666666666666666
sS'next4phone'
p2513
I0
sg13
S'"<degree> A DISSERTATION SUBMITTED TO THE GRADUATE SCHOOL IN PARTIAL FULFILLMENT OF THE REQUIREMENTS for the degree DOCTOR OF PHILOSOPHY in ELECTRICAL AND COMPUTER ENGINEERING  </degree>::line_number::2"'
p2514
sg15
I1
sg16
I0
sS'next1author'
p2515
F0.5
sg18
F0.0
sg19
I0
sg20
F0.0
sg21
F0.0
sS'pre3note'
p2516
I0
sS'next3phone'
p2517
I0
sS'pre2note'
p2518
I0
sS'next1address'
p2519
I0
sS'pre1affiliation'
p2520
I0
sS'pre2address'
p2521
I0
sS'pre1abstract'
p2522
I0
sS'next3abstract'
p2523
I0
sS'pre2affiliation'
p2524
F0.5
sS'pre3title'
p2525
I0
sg32
I0
sS'pre3pubnum'
p2526
I0
sg34
I288
sS'pre3date'
p2527
I0
sS'next4title'
p2528
I0
sS'next3email'
p2529
I0
sg38
I0
sS'next1abstract'
p2530
I0
sS'pre2phone'
p2531
I0
sS'pre4affiliation'
p2532
I0
sS'pre2intro'
p2533
I0
sS'next2date'
p2534
I0
sS'pre3intro'
p2535
I0
sS'next2note'
p2536
I0
sS'next3title'
p2537
I0
sS'next3keyword'
p2538
I0
sS'pre2pubnum'
p2539
I0
sS'next4affiliation'
p2540
I0
sS'next2pubnum'
p2541
I0
sS'pre4note'
p2542
I0
sg52
I0
sg53
F0.0
sS'pre3web'
p2543
I0
sS'next4pubnum'
p2544
I0
sS'next4degree'
p2545
I0
sg57
I0
sS'pre3author'
p2546
I0
sS'pre4web'
p2547
I0
sS'next1note'
p2548
I0
sS'pre3abstract'
p2549
I0
sg62
F0.4166666666666667
sS'pre1degree'
p2550
I0
sS'pre4abstract'
p2551
I0
sS'pre2degree'
p2552
I0
sS'next3degree'
p2553
I0
sS'next4abstract'
p2554
I0
sS'next1keyword'
p2555
I0
sS'pre3phone'
p2556
I0
sS'pre1note'
p2557
I0
sS'pre4keyword'
p2558
I0
sg72
I7
sS'pre4address'
p2559
I0
sS'pre2date'
p2560
I0
sS'next2title'
p2561
I0
sS'pre3address'
p2562
I0
sS'next1pubnum'
p2563
I0
sS'next2author'
p2564
I0
sS'pre2web'
p2565
I0
sS'next1email'
p2566
I0
sg81
S'degree'
p2567
sS'pre1web'
p2568
I0
sS'pre4email'
p2569
I0
sS'pre1keyword'
p2570
I0
sS'pre4date'
p2571
I0
sS'next1affiliation'
p2572
I0
sS'next2degree'
p2573
I0
sS'pre1phone'
p2574
I0
sg90
g726
sg92
I0
sS'pre2abstract'
p2575
I0
sS'next1intro'
p2576
I0
sS'next2intro'
p2577
I0
sS'pre3degree'
p2578
I0
sS'pre1author'
p2579
I0
sS'next3page'
p2580
I0
sS'next3web'
p2581
I0
sS'next4date'
p2582
I0
sg101
F0.33333333333333337
sg102
F0.08333333333333333
sg103
I0
sS'pre2author'
p2583
I0
sg105
I0
sS'next2page'
p2584
I0
sS'next3pubnum'
p2585
I0
sS'next1degree'
p2586
I0
sS'pre1date'
p2587
I0
sS'pre4phone'
p2588
I0
sg111
I0
sS'next4intro'
p2589
I0
sg113
F0.041666666666666664
sS'next2affiliation'
p2590
I0
sS'next4author'
p2591
I0
sS'next4note'
p2592
I0
sS'pre1pubnum'
p2593
I0
sg118
I0
sg119
I0
sS'next2address'
p2594
F0.5
sS'next2keyword'
p2595
I0
sS'next3note'
p2596
I0
sS'next3affiliation'
p2597
I0
sS'pre4degree'
p2598
I0
sS'next4email'
p2599
I0
sg126
F0.6666666666666666
sS'next1web'
p2600
I0
sS'next2email'
p2601
I0
sS'next2web'
p2602
I0
sg130
F0.0
sS'pre3page'
p2603
I0
sS'next3author'
p2604
I0
sS'pre1address'
p2605
I0
sS'pre2email'
p2606
I0
sS'next4web'
p2607
I0
sS'pre4author'
p2608
I0
sS'pre1title'
p2609
F0.5
sS'next4page'
p2610
F0.5
sg139
I1
sS'next4keyword'
p2611
I0
sg141
I1
sS'next1phone'
p2612
I0
sS'pre4intro'
p2613
I0
sS'pre3keyword'
p2614
I0
sS'pre2title'
p2615
I0
sS'pre3email'
p2616
I0
sS'pre4title'
p2617
I0
sS'next3date'
p2618
F0.5
sS'next2phone'
p2619
I0
sS'next1date'
p2620
I0
sg151
F0.0
sS'pre1intro'
p2621
I0
sS'pre2page'
p2622
I0
sS'next2abstract'
p2623
I0
sS'next4address'
p2624
I0
sS'next1title'
p2625
I0
sS'pre1page'
p2626
I0
sg158
I2
sg159
F0.33333333333333337
sg160
I0
sa(dp2627
S'pre4pubnum'
p2628
I0
sS'next1page'
p2629
I0
sS'pre2keyword'
p2630
I0
sS'next3address'
p2631
I0
sS'pre3affiliation'
p2632
I0
sS'pre1email'
p2633
I0
sS'next3intro'
p2634
I0
sS'pre4page'
p2635
I0
sg10
I5
sg11
F0.6153846153846154
sS'next4phone'
p2636
I0
sg13
S'"<degree> Submitted in partial fulfillment of the requirements for the degree of Doctor of Philosophy. Thesis Committee: Peter Lee, Chair William Scherlis Andy Witkin Olivier Danvy  </degree>::line_number::6"'
p2637
sg15
I0
sg16
I0
sS'next1author'
p2638
I0
sg18
F0.0
sg19
I0
sg20
F0.0
sg21
F0.0
sS'pre3note'
p2639
I0
sS'next3phone'
p2640
I0
sS'pre2note'
p2641
I0
sS'next1address'
p2642
I0
sS'pre1affiliation'
p2643
I0
sS'pre2address'
p2644
I0
sS'pre1abstract'
p2645
I0
sS'next3abstract'
p2646
I0
sS'pre2affiliation'
p2647
F0.5
sS'pre3title'
p2648
I0
sg32
I0
sS'pre3pubnum'
p2649
F0.5
sg34
I294
sS'pre3date'
p2650
I0
sS'next4title'
p2651
I0
sS'next3email'
p2652
I0
sg38
I0
sS'next1abstract'
p2653
I0
sS'pre2phone'
p2654
I0
sS'pre4affiliation'
p2655
I0
sS'pre2intro'
p2656
I0
sS'next2date'
p2657
I0
sS'pre3intro'
p2658
I0
sS'next2note'
p2659
I0
sS'next3title'
p2660
I0
sS'next3keyword'
p2661
I0
sS'pre2pubnum'
p2662
I0
sS'next4affiliation'
p2663
I0
sS'next2pubnum'
p2664
I0
sS'pre4note'
p2665
I0
sg52
I0
sg53
F0.0
sS'pre3web'
p2666
I0
sS'next4pubnum'
p2667
I0
sS'next4degree'
p2668
I0
sg57
I0
sS'pre3author'
p2669
I0
sS'pre4web'
p2670
I0
sS'next1note'
p2671
F0.5
sS'pre3abstract'
p2672
I0
sg62
F0.23076923076923078
sS'pre1degree'
p2673
I0
sS'pre4abstract'
p2674
I0
sS'pre2degree'
p2675
I0
sS'next3degree'
p2676
I0
sS'next4abstract'
p2677
I0
sS'next1keyword'
p2678
I0
sS'pre3phone'
p2679
I0
sS'pre1note'
p2680
I0
sS'pre4keyword'
p2681
I0
sg72
I5
sS'pre4address'
p2682
I0
sS'pre2date'
p2683
I0
sS'next2title'
p2684
I0
sS'pre3address'
p2685
I0
sS'next1pubnum'
p2686
I0
sS'next2author'
p2687
I0
sS'pre2web'
p2688
I0
sS'next1email'
p2689
I0
sg81
S'degree'
p2690
sS'pre1web'
p2691
I0
sS'pre4email'
p2692
I0
sS'pre1keyword'
p2693
I0
sS'pre4date'
p2694
F0.5
sS'next1affiliation'
p2695
I0
sS'next2degree'
p2696
I0
sS'pre1phone'
p2697
I0
sg90
g1342
sg92
I0
sS'pre2abstract'
p2698
I0
sS'next1intro'
p2699
I0
sS'next2intro'
p2700
I0
sS'pre3degree'
p2701
I0
sS'pre1author'
p2702
I0
sS'next3page'
p2703
I0
sS'next3web'
p2704
I0
sS'next4date'
p2705
I0
sg101
F0.3846153846153846
sg102
F0.0
sg103
I0
sS'pre2author'
p2706
I0
sg105
I0
sS'next2page'
p2707
F0.5
sS'next3pubnum'
p2708
I0
sS'next1degree'
p2709
I0
sS'pre1date'
p2710
I0
sS'pre4phone'
p2711
I0
sg111
I0
sS'next4intro'
p2712
I0
sg113
F0.0
sS'next2affiliation'
p2713
I0
sS'next4author'
p2714
I0
sS'next4note'
p2715
I0
sS'pre1pubnum'
p2716
I0
sg118
I0
sg119
I0
sS'next2address'
p2717
I0
sS'next2keyword'
p2718
I0
sS'next3note'
p2719
I0
sS'next3affiliation'
p2720
I0
sS'pre4degree'
p2721
I0
sS'next4email'
p2722
I0
sg126
F0.6
sS'next1web'
p2723
I0
sS'next2email'
p2724
I0
sS'next2web'
p2725
I0
sg130
F0.0
sS'pre3page'
p2726
I0
sS'next3author'
p2727
I0
sS'pre1address'
p2728
F0.5
sS'pre2email'
p2729
I0
sS'next4web'
p2730
I0
sS'pre4author'
p2731
I0
sS'pre1title'
p2732
I0
sS'next4page'
p2733
I0
sg139
I0
sS'next4keyword'
p2734
I0
sg141
I0
sS'next1phone'
p2735
I0
sS'pre4intro'
p2736
I0
sS'pre3keyword'
p2737
I0
sS'pre2title'
p2738
I0
sS'pre3email'
p2739
I0
sS'pre4title'
p2740
I0
sS'next3date'
p2741
I0
sS'next2phone'
p2742
I0
sS'next1date'
p2743
I0
sg151
F0.0
sS'pre1intro'
p2744
I0
sS'pre2page'
p2745
I0
sS'next2abstract'
p2746
I0
sS'next4address'
p2747
I0
sS'next1title'
p2748
I0
sS'pre1page'
p2749
I0
sg158
I0
sg159
F0.4
sg160
I0
sa(dp2750
S'pre4pubnum'
p2751
I0
sS'next1page'
p2752
I0
sS'pre2keyword'
p2753
I0
sS'next3address'
p2754
I0
sS'pre3affiliation'
p2755
I0
sS'pre1email'
p2756
I0
sS'next3intro'
p2757
I0
sS'pre4page'
p2758
I0
sg10
I0
sg11
F0.5
sS'next4phone'
p2759
I0
sg13
S'"<degree> A Dissertation Presented by  </degree>::line_number::1"'
p2760
sg15
I0
sg16
I0
sS'next1author'
p2761
F0.5
sg18
F0.0
sg19
I0
sg20
F0.0
sg21
F0.0
sS'pre3note'
p2762
I0
sS'next3phone'
p2763
I0
sS'pre2note'
p2764
I0
sS'next1address'
p2765
I0
sS'pre1affiliation'
p2766
I0
sS'pre2address'
p2767
I0
sS'pre1abstract'
p2768
I0
sS'next3abstract'
p2769
I0
sS'pre2affiliation'
p2770
I0
sS'pre3title'
p2771
I0
sg32
I0
sS'pre3pubnum'
p2772
I0
sg34
I304
sS'pre3date'
p2773
I0
sS'next4title'
p2774
I0
sS'next3email'
p2775
I0
sg38
I0
sS'next1abstract'
p2776
I0
sS'pre2phone'
p2777
I0
sS'pre4affiliation'
p2778
I0
sS'pre2intro'
p2779
I0
sS'next2date'
p2780
I0
sS'pre3intro'
p2781
I0
sS'next2note'
p2782
I0
sS'next3title'
p2783
I0
sS'next3keyword'
p2784
I0
sS'pre2pubnum'
p2785
I0
sS'next4affiliation'
p2786
I0
sS'next2pubnum'
p2787
I0
sS'pre4note'
p2788
I0
sg52
I0
sg53
F0.0
sS'pre3web'
p2789
I0
sS'next4pubnum'
p2790
I0
sS'next4degree'
p2791
F0.5
sg57
I0
sS'pre3author'
p2792
I0
sS'pre4web'
p2793
I0
sS'next1note'
p2794
I0
sS'pre3abstract'
p2795
I0
sg62
F0.25
sS'pre1degree'
p2796
I0
sS'pre4abstract'
p2797
I0
sS'pre2degree'
p2798
I0
sS'next3degree'
p2799
I0
sS'next4abstract'
p2800
I0
sS'next1keyword'
p2801
I0
sS'pre3phone'
p2802
I0
sS'pre1note'
p2803
I0
sS'pre4keyword'
p2804
I0
sg72
I1
sS'pre4address'
p2805
I0
sS'pre2date'
p2806
I0
sS'next2title'
p2807
I0
sS'pre3address'
p2808
I0
sS'next1pubnum'
p2809
I0
sS'next2author'
p2810
I0
sS'pre2web'
p2811
I0
sS'next1email'
p2812
I0
sg81
S'degree'
p2813
sS'pre1web'
p2814
I0
sS'pre4email'
p2815
I0
sS'pre1keyword'
p2816
I0
sS'pre4date'
p2817
I0
sS'next1affiliation'
p2818
I0
sS'next2degree'
p2819
F0.5
sS'pre1phone'
p2820
I0
sg90
g232
sg92
I0
sS'pre2abstract'
p2821
I0
sS'next1intro'
p2822
I0
sS'next2intro'
p2823
I0
sS'pre3degree'
p2824
I0
sS'pre1author'
p2825
I0
sS'next3page'
p2826
I0
sS'next3web'
p2827
I0
sS'next4date'
p2828
I0
sg101
F0.5
sg102
F0.0
sg103
I0
sS'pre2author'
p2829
I0
sg105
I0
sS'next2page'
p2830
I0
sS'next3pubnum'
p2831
I0
sS'next1degree'
p2832
I0
sS'pre1date'
p2833
I0
sS'pre4phone'
p2834
I0
sg111
I0
sS'next4intro'
p2835
I0
sg113
F0.0
sS'next2affiliation'
p2836
I0
sS'next4author'
p2837
I0
sS'next4note'
p2838
I0
sS'pre1pubnum'
p2839
I0
sg118
I0
sg119
I0
sS'next2address'
p2840
I0
sS'next2keyword'
p2841
I0
sS'next3note'
p2842
I0
sS'next3affiliation'
p2843
F0.5
sS'pre4degree'
p2844
I0
sS'next4email'
p2845
I0
sg126
F0.5
sS'next1web'
p2846
I0
sS'next2email'
p2847
I0
sS'next2web'
p2848
I0
sg130
F0.0
sS'pre3page'
p2849
I0
sS'next3author'
p2850
I0
sS'pre1address'
p2851
I0
sS'pre2email'
p2852
I0
sS'next4web'
p2853
I0
sS'pre4author'
p2854
I0
sS'pre1title'
p2855
F0.5
sS'next4page'
p2856
I0
sg139
I1
sS'next4keyword'
p2857
I0
sg141
I0
sS'next1phone'
p2858
I0
sS'pre4intro'
p2859
I0
sS'pre3keyword'
p2860
I0
sS'pre2title'
p2861
I0
sS'pre3email'
p2862
I0
sS'pre4title'
p2863
I0
sS'next3date'
p2864
I0
sS'next2phone'
p2865
I0
sS'next1date'
p2866
I0
sg151
F0.0
sS'pre1intro'
p2867
I0
sS'pre2page'
p2868
I0
sS'next2abstract'
p2869
I0
sS'next4address'
p2870
I0
sS'next1title'
p2871
I0
sS'pre1page'
p2872
I0
sg158
I0
sg159
F0.5
sg160
I0
sa(dp2873
S'pre4pubnum'
p2874
I0
sS'next1page'
p2875
I0
sS'pre2keyword'
p2876
I0
sS'next3address'
p2877
I0
sS'pre3affiliation'
p2878
I0
sS'pre1email'
p2879
I0
sS'next3intro'
p2880
I0
sS'pre4page'
p2881
I0
sg10
I0
sg11
F0.42857142857142855
sS'next4phone'
p2882
I0
sg13
S'"<degree> Submitted to the Graduate School of the  </degree>::line_number::3"'
p2883
sg15
I0
sg16
I0
sS'next1author'
p2884
I0
sg18
F0.0
sg19
I0
sg20
F0.0
sg21
F0.0
sS'pre3note'
p2885
I0
sS'next3phone'
p2886
I0
sS'pre2note'
p2887
I0
sS'next1address'
p2888
I0
sS'pre1affiliation'
p2889
I0
sS'pre2address'
p2890
I0
sS'pre1abstract'
p2891
I0
sS'next3abstract'
p2892
I0
sS'pre2affiliation'
p2893
I0
sS'pre3title'
p2894
F0.5
sg32
I0
sS'pre3pubnum'
p2895
I0
sg34
I304
sS'pre3date'
p2896
I0
sS'next4title'
p2897
I0
sS'next3email'
p2898
I0
sg38
I0
sS'next1abstract'
p2899
I0
sS'pre2phone'
p2900
I0
sS'pre4affiliation'
p2901
I0
sS'pre2intro'
p2902
I0
sS'next2date'
p2903
I0
sS'pre3intro'
p2904
I0
sS'next2note'
p2905
I0
sS'next3title'
p2906
I0
sS'next3keyword'
p2907
I0
sS'pre2pubnum'
p2908
I0
sS'next4affiliation'
p2909
F0.5
sS'next2pubnum'
p2910
I0
sS'pre4note'
p2911
I0
sg52
I0
sg53
F0.0
sS'pre3web'
p2912
I0
sS'next4pubnum'
p2913
I0
sS'next4degree'
p2914
I0
sg57
I0
sS'pre3author'
p2915
I0
sS'pre4web'
p2916
I0
sS'next1note'
p2917
I0
sS'pre3abstract'
p2918
I0
sg62
F0.2857142857142857
sS'pre1degree'
p2919
I0
sS'pre4abstract'
p2920
I0
sS'pre2degree'
p2921
F0.5
sS'next3degree'
p2922
I0
sS'next4abstract'
p2923
I0
sS'next1keyword'
p2924
I0
sS'pre3phone'
p2925
I0
sS'pre1note'
p2926
I0
sS'pre4keyword'
p2927
I0
sg72
I2
sS'pre4address'
p2928
I0
sS'pre2date'
p2929
I0
sS'next2title'
p2930
I0
sS'pre3address'
p2931
I0
sS'next1pubnum'
p2932
I0
sS'next2author'
p2933
I0
sS'pre2web'
p2934
I0
sS'next1email'
p2935
I0
sg81
S'degree'
p2936
sS'pre1web'
p2937
I0
sS'pre4email'
p2938
I0
sS'pre1keyword'
p2939
I0
sS'pre4date'
p2940
I0
sS'next1affiliation'
p2941
F0.5
sS'next2degree'
p2942
F0.5
sS'pre1phone'
p2943
I0
sg90
g602
sg92
I0
sS'pre2abstract'
p2944
I0
sS'next1intro'
p2945
I0
sS'next2intro'
p2946
I0
sS'pre3degree'
p2947
I0
sS'pre1author'
p2948
F0.5
sS'next3page'
p2949
I0
sS'next3web'
p2950
I0
sS'next4date'
p2951
I0
sg101
F0.5714285714285714
sg102
F0.0
sg103
I0
sS'pre2author'
p2952
I0
sg105
I0
sS'next2page'
p2953
I0
sS'next3pubnum'
p2954
I0
sS'next1degree'
p2955
I0
sS'pre1date'
p2956
I0
sS'pre4phone'
p2957
I0
sg111
I0
sS'next4intro'
p2958
I0
sg113
F0.14285714285714285
sS'next2affiliation'
p2959
I0
sS'next4author'
p2960
I0
sS'next4note'
p2961
I0
sS'pre1pubnum'
p2962
I0
sg118
I0
sg119
I0
sS'next2address'
p2963
I0
sS'next2keyword'
p2964
I0
sS'next3note'
p2965
I0
sS'next3affiliation'
p2966
I0
sS'pre4degree'
p2967
I0
sS'next4email'
p2968
I0
sg126
F0.5
sS'next1web'
p2969
I0
sS'next2email'
p2970
I0
sS'next2web'
p2971
I0
sg130
F0.0
sS'pre3page'
p2972
I0
sS'next3author'
p2973
I0
sS'pre1address'
p2974
I0
sS'pre2email'
p2975
I0
sS'next4web'
p2976
I0
sS'pre4author'
p2977
I0
sS'pre1title'
p2978
I0
sS'next4page'
p2979
I0
sg139
I0
sS'next4keyword'
p2980
I0
sg141
I1
sS'next1phone'
p2981
I0
sS'pre4intro'
p2982
I0
sS'pre3keyword'
p2983
I0
sS'pre2title'
p2984
I0
sS'pre3email'
p2985
I0
sS'pre4title'
p2986
I0
sS'next3date'
p2987
F0.5
sS'next2phone'
p2988
I0
sS'next1date'
p2989
I0
sg151
F0.0
sS'pre1intro'
p2990
I0
sS'pre2page'
p2991
I0
sS'next2abstract'
p2992
I0
sS'next4address'
p2993
I0
sS'next1title'
p2994
I0
sS'pre1page'
p2995
I0
sg158
I0
sg159
F0.5
sg160
I0
sa(dp2996
S'pre4pubnum'
p2997
I0
sS'next1page'
p2998
I0
sS'pre2keyword'
p2999
I0
sS'next3address'
p3000
I0
sS'pre3affiliation'
p3001
I0
sS'pre1email'
p3002
I0
sS'next3intro'
p3003
I0
sS'pre4page'
p3004
I0
sg10
I0
sg11
F0.6923076923076923
sS'next4phone'
p3005
I0
sg13
S'"<degree> in partial fulfillment of the requirements for the degree of Doctor of Philosophy  </degree>::line_number::5"'
p3006
sg15
I0
sg16
I0
sS'next1author'
p3007
I0
sg18
F0.0
sg19
I0
sg20
F0.0
sg21
F0.0
sS'pre3note'
p3008
I0
sS'next3phone'
p3009
I0
sS'pre2note'
p3010
I0
sS'next1address'
p3011
I0
sS'pre1affiliation'
p3012
F0.5
sS'pre2address'
p3013
I0
sS'pre1abstract'
p3014
I0
sS'next3abstract'
p3015
I0
sS'pre2affiliation'
p3016
I0
sS'pre3title'
p3017
I0
sg32
I0
sS'pre3pubnum'
p3018
I0
sg34
I304
sS'pre3date'
p3019
I0
sS'next4title'
p3020
I0
sS'next3email'
p3021
I0
sg38
I0
sS'next1abstract'
p3022
I0
sS'pre2phone'
p3023
I0
sS'pre4affiliation'
p3024
I0
sS'pre2intro'
p3025
I0
sS'next2date'
p3026
I0
sS'pre3intro'
p3027
I0
sS'next2note'
p3028
I0
sS'next3title'
p3029
I0
sS'next3keyword'
p3030
I0
sS'pre2pubnum'
p3031
I0
sS'next4affiliation'
p3032
I0
sS'next2pubnum'
p3033
I0
sS'pre4note'
p3034
I0
sg52
I0
sg53
F0.0
sS'pre3web'
p3035
I0
sS'next4pubnum'
p3036
I0
sS'next4degree'
p3037
I0
sg57
I0
sS'pre3author'
p3038
F0.5
sS'pre4web'
p3039
I0
sS'next1note'
p3040
I0
sS'pre3abstract'
p3041
I0
sg62
F0.38461538461538464
sS'pre1degree'
p3042
I0
sS'pre4abstract'
p3043
I0
sS'pre2degree'
p3044
F0.5
sS'next3degree'
p3045
I0
sS'next4abstract'
p3046
I0
sS'next1keyword'
p3047
I0
sS'pre3phone'
p3048
I0
sS'pre1note'
p3049
I0
sS'pre4keyword'
p3050
I0
sg72
I4
sS'pre4address'
p3051
I0
sS'pre2date'
p3052
I0
sS'next2title'
p3053
I0
sS'pre3address'
p3054
I0
sS'next1pubnum'
p3055
I0
sS'next2author'
p3056
I0
sS'pre2web'
p3057
I0
sS'next1email'
p3058
I0
sg81
S'degree'
p3059
sS'pre1web'
p3060
I0
sS'pre4email'
p3061
I0
sS'pre1keyword'
p3062
I0
sS'pre4date'
p3063
I0
sS'next1affiliation'
p3064
I0
sS'next2degree'
p3065
I0
sS'pre1phone'
p3066
I0
sg90
g2082
sg92
I0
sS'pre2abstract'
p3067
I0
sS'next1intro'
p3068
I0
sS'next2intro'
p3069
I0
sS'pre3degree'
p3070
I0
sS'pre1author'
p3071
I0
sS'next3page'
p3072
F0.5
sS'next3web'
p3073
I0
sS'next4date'
p3074
I0
sg101
F0.3076923076923077
sg102
F0.0
sg103
I0
sS'pre2author'
p3075
I0
sg105
I0
sS'next2page'
p3076
I0
sS'next3pubnum'
p3077
I0
sS'next1degree'
p3078
I0
sS'pre1date'
p3079
I0
sS'pre4phone'
p3080
I0
sg111
I0
sS'next4intro'
p3081
I0
sg113
F0.0
sS'next2affiliation'
p3082
F0.5
sS'next4author'
p3083
I0
sS'next4note'
p3084
I0
sS'pre1pubnum'
p3085
I0
sg118
I0
sg119
I0
sS'next2address'
p3086
I0
sS'next2keyword'
p3087
I0
sS'next3note'
p3088
I0
sS'next3affiliation'
p3089
I0
sS'pre4degree'
p3090
F0.5
sS'next4email'
p3091
I0
sg126
F0.6666666666666666
sS'next1web'
p3092
I0
sS'next2email'
p3093
I0
sS'next2web'
p3094
I0
sg130
F0.0
sS'pre3page'
p3095
I0
sS'next3author'
p3096
I0
sS'pre1address'
p3097
I0
sS'pre2email'
p3098
I0
sS'next4web'
p3099
I0
sS'pre4author'
p3100
I0
sS'pre1title'
p3101
I0
sS'next4page'
p3102
I0
sg139
I0
sS'next4keyword'
p3103
I0
sg141
I0
sS'next1phone'
p3104
I0
sS'pre4intro'
p3105
I0
sS'pre3keyword'
p3106
I0
sS'pre2title'
p3107
I0
sS'pre3email'
p3108
I0
sS'pre4title'
p3109
I0
sS'next3date'
p3110
I0
sS'next2phone'
p3111
I0
sS'next1date'
p3112
F0.5
sg151
F0.0
sS'pre1intro'
p3113
I0
sS'pre2page'
p3114
I0
sS'next2abstract'
p3115
I0
sS'next4address'
p3116
I0
sS'next1title'
p3117
I0
sS'pre1page'
p3118
I0
sg158
I0
sg159
F0.33333333333333337
sg160
I0
sa(dp3119
S'pre4pubnum'
p3120
I0
sS'next1page'
p3121
I0
sS'pre2keyword'
p3122
I0
sS'next3address'
p3123
F0.5
sS'pre3affiliation'
p3124
I0
sS'pre1email'
p3125
I0
sS'next3intro'
p3126
I0
sS'pre4page'
p3127
I0
sg10
I0
sg11
F0.5681818181818182
sS'next4phone'
p3128
I0
sg13
S'"<degree> B.E, Birla Institute of Technology & Science, 1993 M.Sc, Birla Institute of Technology & Science, 1993 THESIS Submitted in partial fulfillment of the requirements for the degree of Master of Science in Computer Science in the Graduate College of the  </degree>::line_number::2"'
p3129
sg15
I0
sg16
I0
sS'next1author'
p3130
I0
sg18
F0.03864734299516908
sg19
I0
sg20
F0.0
sg21
F0.0
sS'pre3note'
p3131
I0
sS'next3phone'
p3132
I0
sS'pre2note'
p3133
I0
sS'next1address'
p3134
I0
sS'pre1affiliation'
p3135
I0
sS'pre2address'
p3136
I0
sS'pre1abstract'
p3137
I0
sS'next3abstract'
p3138
I0
sS'pre2affiliation'
p3139
I0
sS'pre3title'
p3140
I0
sg32
I0
sS'pre3pubnum'
p3141
I0
sg34
I319
sS'pre3date'
p3142
I0
sS'next4title'
p3143
I0
sS'next3email'
p3144
I0
sg38
I0
sS'next1abstract'
p3145
I0
sS'pre2phone'
p3146
I0
sS'pre4affiliation'
p3147
I0
sS'pre2intro'
p3148
I0
sS'next2date'
p3149
F0.5
sS'pre3intro'
p3150
I0
sS'next2note'
p3151
I0
sS'next3title'
p3152
I0
sS'next3keyword'
p3153
I0
sS'pre2pubnum'
p3154
I0
sS'next4affiliation'
p3155
I0
sS'next2pubnum'
p3156
I0
sS'pre4note'
p3157
I0
sg52
I0
sg53
F0.045454545454545456
sS'pre3web'
p3158
I0
sS'next4pubnum'
p3159
I0
sS'next4degree'
p3160
I0
sg57
I0
sS'pre3author'
p3161
I0
sS'pre4web'
p3162
I0
sS'next1note'
p3163
I0
sS'pre3abstract'
p3164
I0
sg62
F0.3181818181818182
sS'pre1degree'
p3165
I0
sS'pre4abstract'
p3166
I0
sS'pre2degree'
p3167
I0
sS'next3degree'
p3168
I0
sS'next4abstract'
p3169
I0
sS'next1keyword'
p3170
I0
sS'pre3phone'
p3171
I0
sS'pre1note'
p3172
I0
sS'pre4keyword'
p3173
I0
sg72
I12
sS'pre4address'
p3174
I0
sS'pre2date'
p3175
I0
sS'next2title'
p3176
I0
sS'pre3address'
p3177
I0
sS'next1pubnum'
p3178
I0
sS'next2author'
p3179
I0
sS'pre2web'
p3180
I0
sS'next1email'
p3181
I0
sg81
S'degree'
p3182
sS'pre1web'
p3183
I0
sS'pre4email'
p3184
I0
sS'pre1keyword'
p3185
I0
sS'pre4date'
p3186
I0
sS'next1affiliation'
p3187
F0.5
sS'next2degree'
p3188
I0
sS'pre1phone'
p3189
I0
sg90
g726
sg92
I0
sS'pre2abstract'
p3190
I0
sS'next1intro'
p3191
I0
sS'next2intro'
p3192
I0
sS'pre3degree'
p3193
I0
sS'pre1author'
p3194
F0.5
sS'next3page'
p3195
I0
sS'next3web'
p3196
I0
sS'next4date'
p3197
I0
sg101
F0.43181818181818177
sg102
F0.20454545454545456
sg103
I0
sS'pre2author'
p3198
I0
sg105
I0
sS'next2page'
p3199
I0
sS'next3pubnum'
p3200
I0
sS'next1degree'
p3201
I0
sS'pre1date'
p3202
I0
sS'pre4phone'
p3203
I0
sg111
I0
sS'next4intro'
p3204
I0
sg113
F0.06818181818181818
sS'next2affiliation'
p3205
I0
sS'next4author'
p3206
I0
sS'next4note'
p3207
I0
sS'pre1pubnum'
p3208
I0
sg118
I0
sg119
I1
sS'next2address'
p3209
I0
sS'next2keyword'
p3210
I0
sS'next3note'
p3211
I0
sS'next3affiliation'
p3212
I0
sS'pre4degree'
p3213
I0
sS'next4email'
p3214
I0
sg126
F0.6842105263157895
sS'next1web'
p3215
I0
sS'next2email'
p3216
I0
sS'next2web'
p3217
I0
sg130
F0.0
sS'pre3page'
p3218
I0
sS'next3author'
p3219
I0
sS'pre1address'
p3220
I0
sS'pre2email'
p3221
I0
sS'next4web'
p3222
I0
sS'pre4author'
p3223
I0
sS'pre1title'
p3224
I0
sS'next4page'
p3225
F0.5
sg139
I0
sS'next4keyword'
p3226
I0
sg141
I3
sS'next1phone'
p3227
I0
sS'pre4intro'
p3228
I0
sS'pre3keyword'
p3229
I0
sS'pre2title'
p3230
F0.5
sS'pre3email'
p3231
I0
sS'pre4title'
p3232
I0
sS'next3date'
p3233
I0
sS'next2phone'
p3234
I0
sS'next1date'
p3235
I0
sg151
F0.0
sS'pre1intro'
p3236
I0
sS'pre2page'
p3237
I0
sS'next2abstract'
p3238
I0
sS'next4address'
p3239
I0
sS'next1title'
p3240
I0
sS'pre1page'
p3241
I0
sg158
I9
sg159
F0.3157894736842105
sg160
I0
sa(dp3242
S'pre4pubnum'
p3243
I0
sS'next1page'
p3244
I0
sS'pre2keyword'
p3245
I0
sS'next3address'
p3246
I0
sS'pre3affiliation'
p3247
I0
sS'pre1email'
p3248
I0
sS'next3intro'
p3249
I0
sS'pre4page'
p3250
I0
sg10
I7
sg11
F0.6551724137931034
sS'next4phone'
p3251
I0
sg13
S'"<degree> Submitted in partial fulfillment of the requirements for the degree of Doctor of Philosophy. Thesis Committee: Robert Harper, Chair Peter Lee John Reynolds Luca Cardelli, DEC SRC  </degree>::line_number::5"'
p3252
sg15
I0
sg16
I0
sS'next1author'
p3253
I0
sg18
F0.0
sg19
I0
sg20
F0.034482758620689655
sg21
F0.034482758620689655
sS'pre3note'
p3254
I0
sS'next3phone'
p3255
I0
sS'pre2note'
p3256
I0
sS'next1address'
p3257
I0
sS'pre1affiliation'
p3258
I0
sS'pre2address'
p3259
I0
sS'pre1abstract'
p3260
I0
sS'next3abstract'
p3261
I0
sS'pre2affiliation'
p3262
F0.5
sS'pre3title'
p3263
I0
sg32
I0
sS'pre3pubnum'
p3264
I0
sg34
I325
sS'pre3date'
p3265
F0.5
sS'next4title'
p3266
I0
sS'next3email'
p3267
I0
sg38
I0
sS'next1abstract'
p3268
I0
sS'pre2phone'
p3269
I0
sS'pre4affiliation'
p3270
I0
sS'pre2intro'
p3271
I0
sS'next2date'
p3272
I0
sS'pre3intro'
p3273
I0
sS'next2note'
p3274
I0
sS'next3title'
p3275
I0
sS'next3keyword'
p3276
I0
sS'pre2pubnum'
p3277
I0
sS'next4affiliation'
p3278
I0
sS'next2pubnum'
p3279
I0
sS'pre4note'
p3280
I0
sg52
I1
sg53
F0.0
sS'pre3web'
p3281
I0
sS'next4pubnum'
p3282
I0
sS'next4degree'
p3283
I0
sg57
I0
sS'pre3author'
p3284
I0
sS'pre4web'
p3285
I0
sS'next1note'
p3286
F0.5
sS'pre3abstract'
p3287
I0
sg62
F0.20689655172413793
sS'pre1degree'
p3288
I0
sS'pre4abstract'
p3289
I0
sS'pre2degree'
p3290
I0
sS'next3degree'
p3291
I0
sS'next4abstract'
p3292
I0
sS'next1keyword'
p3293
I0
sS'pre3phone'
p3294
I0
sS'pre1note'
p3295
I0
sS'pre4keyword'
p3296
I0
sg72
I4
sS'pre4address'
p3297
I0
sS'pre2date'
p3298
I0
sS'next2title'
p3299
I0
sS'pre3address'
p3300
I0
sS'next1pubnum'
p3301
I0
sS'next2author'
p3302
I0
sS'pre2web'
p3303
I0
sS'next1email'
p3304
I0
sg81
S'degree'
p3305
sS'pre1web'
p3306
I0
sS'pre4email'
p3307
I0
sS'pre1keyword'
p3308
I0
sS'pre4date'
p3309
I0
sS'next1affiliation'
p3310
I0
sS'next2degree'
p3311
I0
sS'pre1phone'
p3312
I0
sg90
g2082
sg92
I0
sS'pre2abstract'
p3313
I0
sS'next1intro'
p3314
I0
sS'next2intro'
p3315
I0
sS'pre3degree'
p3316
I0
sS'pre1author'
p3317
I0
sS'next3page'
p3318
I0
sS'next3web'
p3319
I0
sS'next4date'
p3320
I0
sg101
F0.3448275862068966
sg102
F0.0
sg103
I0
sS'pre2author'
p3321
I0
sg105
I0
sS'next2page'
p3322
F0.5
sS'next3pubnum'
p3323
I0
sS'next1degree'
p3324
I0
sS'pre1date'
p3325
I0
sS'pre4phone'
p3326
I0
sg111
I1
sS'next4intro'
p3327
I0
sg113
F0.0
sS'next2affiliation'
p3328
I0
sS'next4author'
p3329
I0
sS'next4note'
p3330
I0
sS'pre1pubnum'
p3331
I0
sg118
I0
sg119
I0
sS'next2address'
p3332
I0
sS'next2keyword'
p3333
I0
sS'next3note'
p3334
I0
sS'next3affiliation'
p3335
I0
sS'pre4degree'
p3336
I0
sS'next4email'
p3337
I0
sg126
F0.7058823529411765
sS'next1web'
p3338
I0
sS'next2email'
p3339
I0
sS'next2web'
p3340
I0
sg130
F0.0
sS'pre3page'
p3341
I0
sS'next3author'
p3342
I0
sS'pre1address'
p3343
F0.5
sS'pre2email'
p3344
I0
sS'next4web'
p3345
I0
sS'pre4author'
p3346
F0.5
sS'pre1title'
p3347
I0
sS'next4page'
p3348
I0
sg139
I0
sS'next4keyword'
p3349
I0
sg141
I0
sS'next1phone'
p3350
I0
sS'pre4intro'
p3351
I0
sS'pre3keyword'
p3352
I0
sS'pre2title'
p3353
I0
sS'pre3email'
p3354
I0
sS'pre4title'
p3355
I0
sS'next3date'
p3356
I0
sS'next2phone'
p3357
I0
sS'next1date'
p3358
I0
sg151
F0.0
sS'pre1intro'
p3359
I0
sS'pre2page'
p3360
I0
sS'next2abstract'
p3361
I0
sS'next4address'
p3362
I0
sS'next1title'
p3363
I0
sS'pre1page'
p3364
I0
sg158
I0
sg159
F0.2941176470588235
sg160
I0
sa(dp3365
S'pre4pubnum'
p3366
I0
sS'next1page'
p3367
I0
sS'pre2keyword'
p3368
I0
sS'next3address'
p3369
I0
sS'pre3affiliation'
p3370
I0
sS'pre1email'
p3371
I0
sS'next3intro'
p3372
I0
sS'pre4page'
p3373
I0
sg10
I1
sg11
F0.6129032258064516
sS'next4phone'
p3374
I0
sg13
S'"<degree> a dissertation submitted to the department of computer science and the committee on graduate studies of stanford university in partial fulfillment of the requirements for the degree of doctor of philosophy  </degree>::line_number::1"'
p3375
sg15
I0
sg16
I0
sS'next1author'
p3376
F0.5
sg18
F0.0
sg19
I0
sg20
F0.0
sg21
F0.03225806451612903
sS'pre3note'
p3377
I0
sS'next3phone'
p3378
I0
sS'pre2note'
p3379
I0
sS'next1address'
p3380
I0
sS'pre1affiliation'
p3381
I0
sS'pre2address'
p3382
I0
sS'pre1abstract'
p3383
I0
sS'next3abstract'
p3384
I0
sS'pre2affiliation'
p3385
I0
sS'pre3title'
p3386
I0
sg32
I0
sS'pre3pubnum'
p3387
I0
sg34
I379
sS'pre3date'
p3388
I0
sS'next4title'
p3389
I0
sS'next3email'
p3390
I0
sg38
I0
sS'next1abstract'
p3391
I0
sS'pre2phone'
p3392
I0
sS'pre4affiliation'
p3393
I0
sS'pre2intro'
p3394
I0
sS'next2date'
p3395
F0.5
sS'pre3intro'
p3396
I0
sS'next2note'
p3397
I0
sS'next3title'
p3398
I0
sS'next3keyword'
p3399
I0
sS'pre2pubnum'
p3400
I0
sS'next4affiliation'
p3401
I0
sS'next2pubnum'
p3402
I0
sS'pre4note'
p3403
I0
sg52
I1
sg53
F0.0
sS'pre3web'
p3404
I0
sS'next4pubnum'
p3405
I0
sS'next4degree'
p3406
I0
sg57
I0
sS'pre3author'
p3407
I0
sS'pre4web'
p3408
I0
sS'next1note'
p3409
I0
sS'pre3abstract'
p3410
I0
sg62
F0.3548387096774194
sS'pre1degree'
p3411
I0
sS'pre4abstract'
p3412
I0
sS'pre2degree'
p3413
I0
sS'next3degree'
p3414
I0
sS'next4abstract'
p3415
I0
sS'next1keyword'
p3416
I0
sS'pre3phone'
p3417
I0
sS'pre1note'
p3418
I0
sS'pre4keyword'
p3419
I0
sg72
I8
sS'pre4address'
p3420
I0
sS'pre2date'
p3421
I0
sS'next2title'
p3422
I0
sS'pre3address'
p3423
I0
sS'next1pubnum'
p3424
I0
sS'next2author'
p3425
I0
sS'pre2web'
p3426
I0
sS'next1email'
p3427
I0
sg81
S'degree'
p3428
sS'pre1web'
p3429
I0
sS'pre4email'
p3430
I0
sS'pre1keyword'
p3431
I0
sS'pre4date'
p3432
I0
sS'next1affiliation'
p3433
I0
sS'next2degree'
p3434
I0
sS'pre1phone'
p3435
I0
sg90
g232
sg92
I0
sS'pre2abstract'
p3436
I0
sS'next1intro'
p3437
I0
sS'next2intro'
p3438
I0
sS'pre3degree'
p3439
I0
sS'pre1author'
p3440
I0
sS'next3page'
p3441
F0.5
sS'next3web'
p3442
I0
sS'next4date'
p3443
I0
sg101
F0.3870967741935484
sg102
F0.0967741935483871
sg103
I0
sS'pre2author'
p3444
I0
sg105
I0
sS'next2page'
p3445
I0
sS'next3pubnum'
p3446
I0
sS'next1degree'
p3447
I0
sS'pre1date'
p3448
I0
sS'pre4phone'
p3449
I0
sg111
I0
sS'next4intro'
p3450
I0
sg113
F0.06451612903225806
sS'next2affiliation'
p3451
I0
sS'next4author'
p3452
I0
sS'next4note'
p3453
I0
sS'pre1pubnum'
p3454
I0
sg118
I0
sg119
I1
sS'next2address'
p3455
I0
sS'next2keyword'
p3456
I0
sS'next3note'
p3457
I0
sS'next3affiliation'
p3458
I0
sS'pre4degree'
p3459
I0
sS'next4email'
p3460
I0
sg126
F0.0
sS'next1web'
p3461
I0
sS'next2email'
p3462
I0
sS'next2web'
p3463
I0
sg130
F0.0
sS'pre3page'
p3464
I0
sS'next3author'
p3465
I0
sS'pre1address'
p3466
I0
sS'pre2email'
p3467
I0
sS'next4web'
p3468
I0
sS'pre4author'
p3469
I0
sS'pre1title'
p3470
F0.5
sS'next4page'
p3471
I0
sg139
I0
sS'next4keyword'
p3472
I0
sg141
I2
sS'next1phone'
p3473
I0
sS'pre4intro'
p3474
I0
sS'pre3keyword'
p3475
I0
sS'pre2title'
p3476
I0
sS'pre3email'
p3477
I0
sS'pre4title'
p3478
I0
sS'next3date'
p3479
I0
sS'next2phone'
p3480
I0
sS'next1date'
p3481
I0
sg151
F0.0
sS'pre1intro'
p3482
I0
sS'pre2page'
p3483
I0
sS'next2abstract'
p3484
I0
sS'next4address'
p3485
I0
sS'next1title'
p3486
I0
sS'pre1page'
p3487
I0
sg158
I3
sg159
F1.0
sg160
I0
sa(dp3488
S'pre4pubnum'
p3489
I0
sS'next1page'
p3490
I0
sS'pre2keyword'
p3491
I0
sS'next3address'
p3492
I0
sS'pre3affiliation'
p3493
I0
sS'pre1email'
p3494
I0
sS'next3intro'
p3495
I0
sS'pre4page'
p3496
I0
sg10
I0
sg11
F0.6666666666666666
sS'next4phone'
p3497
I0
sg13
S'"<degree> B.Tech. (Indian Institute of Technology, Bombay) 1989 A dissertation submitted in partial satisfaction of the requirements for the degree of Doctor of Philosophy in Computer Science in the GRADUATE DIVISION of the  </degree>::line_number::2"'
p3498
sg15
I0
sg16
I0
sS'next1author'
p3499
I0
sg18
F0.02197802197802198
sg19
I0
sg20
F0.0
sg21
F0.0
sS'pre3note'
p3500
I0
sS'next3phone'
p3501
I0
sS'pre2note'
p3502
I0
sS'next1address'
p3503
I0
sS'pre1affiliation'
p3504
I0
sS'pre2address'
p3505
I0
sS'pre1abstract'
p3506
I0
sS'next3abstract'
p3507
I0
sS'pre2affiliation'
p3508
I0
sS'pre3title'
p3509
I0
sg32
I0
sS'pre3pubnum'
p3510
I0
sg34
I487
sS'pre3date'
p3511
I0
sS'next4title'
p3512
I0
sS'next3email'
p3513
I0
sg38
I0
sS'next1abstract'
p3514
I0
sS'pre2phone'
p3515
I0
sS'pre4affiliation'
p3516
I0
sS'pre2intro'
p3517
I0
sS'next2date'
p3518
I0
sS'pre3intro'
p3519
I0
sS'next2note'
p3520
I0
sS'next3title'
p3521
I0
sS'next3keyword'
p3522
I0
sS'pre2pubnum'
p3523
I0
sS'next4affiliation'
p3524
I0
sS'next2pubnum'
p3525
I0
sS'pre4note'
p3526
I0
sg52
I0
sg53
F0.030303030303030304
sS'pre3web'
p3527
I0
sS'next4pubnum'
p3528
I0
sS'next4degree'
p3529
I0
sg57
I0
sS'pre3author'
p3530
I0
sS'pre4web'
p3531
I0
sS'next1note'
p3532
I0
sS'pre3abstract'
p3533
I0
sg62
F0.3333333333333333
sS'pre1degree'
p3534
I0
sS'pre4abstract'
p3535
I0
sS'pre2degree'
p3536
I0
sS'next3degree'
p3537
I0
sS'next4abstract'
p3538
I0
sS'next1keyword'
p3539
I0
sS'pre3phone'
p3540
I0
sS'pre1note'
p3541
I0
sS'pre4keyword'
p3542
I0
sg72
I13
sS'pre4address'
p3543
I0
sS'pre2date'
p3544
I0
sS'next2title'
p3545
I0
sS'pre3address'
p3546
I0
sS'next1pubnum'
p3547
I0
sS'next2author'
p3548
I0
sS'pre2web'
p3549
I0
sS'next1email'
p3550
I0
sg81
S'degree'
p3551
sS'pre1web'
p3552
I0
sS'pre4email'
p3553
I0
sS'pre1keyword'
p3554
I0
sS'pre4date'
p3555
I0
sS'next1affiliation'
p3556
F0.5
sS'next2degree'
p3557
F0.5
sS'pre1phone'
p3558
I0
sg90
g726
sg92
I0
sS'pre2abstract'
p3559
I0
sS'next1intro'
p3560
I0
sS'next2intro'
p3561
I0
sS'pre3degree'
p3562
I0
sS'pre1author'
p3563
F0.5
sS'next3page'
p3564
I0
sS'next3web'
p3565
I0
sS'next4date'
p3566
I0
sg101
F0.33333333333333337
sg102
F0.12121212121212122
sg103
I0
sS'pre2author'
p3567
I0
sg105
I0
sS'next2page'
p3568
I0
sS'next3pubnum'
p3569
I0
sS'next1degree'
p3570
I0
sS'pre1date'
p3571
I0
sS'pre4phone'
p3572
I0
sg111
I0
sS'next4intro'
p3573
I0
sg113
F0.06060606060606061
sS'next2affiliation'
p3574
I0
sS'next4author'
p3575
I0
sS'next4note'
p3576
I0
sS'pre1pubnum'
p3577
I0
sg118
I0
sg119
I0
sS'next2address'
p3578
I0
sS'next2keyword'
p3579
I0
sS'next3note'
p3580
I0
sS'next3affiliation'
p3581
I0
sS'pre4degree'
p3582
I0
sS'next4email'
p3583
I0
sg126
F0.75
sS'next1web'
p3584
I0
sS'next2email'
p3585
I0
sS'next2web'
p3586
I0
sg130
F0.0
sS'pre3page'
p3587
I0
sS'next3author'
p3588
I0
sS'pre1address'
p3589
I0
sS'pre2email'
p3590
I0
sS'next4web'
p3591
I0
sS'pre4author'
p3592
I0
sS'pre1title'
p3593
I0
sS'next4page'
p3594
F0.5
sg139
I1
sS'next4keyword'
p3595
I0
sg141
I2
sS'next1phone'
p3596
I0
sS'pre4intro'
p3597
I0
sS'pre3keyword'
p3598
I0
sS'pre2title'
p3599
F0.5
sS'pre3email'
p3600
I0
sS'pre4title'
p3601
I0
sS'next3date'
p3602
F0.5
sS'next2phone'
p3603
I0
sS'next1date'
p3604
I0
sg151
F0.0
sS'pre1intro'
p3605
I0
sS'pre2page'
p3606
I0
sS'next2abstract'
p3607
I0
sS'next4address'
p3608
I0
sS'next1title'
p3609
I0
sS'pre1page'
p3610
I0
sg158
I4
sg159
F0.25
sg160
I0
sa(dp3611
S'pre4pubnum'
p3612
I0
sS'next1page'
p3613
I0
sS'pre2keyword'
p3614
I0
sS'next3address'
p3615
I0
sS'pre3affiliation'
p3616
I0
sS'pre1email'
p3617
I0
sS'next3intro'
p3618
I0
sS'pre4page'
p3619
I0
sg10
I2
sg11
F0.625
sS'next4phone'
p3620
I0
sg13
S'"<degree> Committee in charge: Professor James W. Demmel, Chair Professor Beresford N. Parlett Professor Phil Colella  </degree>::line_number::4"'
p3621
sg15
I0
sg16
I0
sS'next1author'
p3622
I0
sg18
F0.0
sg19
I0
sg20
F0.0
sg21
F0.0
sS'pre3note'
p3623
I0
sS'next3phone'
p3624
I0
sS'pre2note'
p3625
I0
sS'next1address'
p3626
I0
sS'pre1affiliation'
p3627
F0.5
sS'pre2address'
p3628
I0
sS'pre1abstract'
p3629
I0
sS'next3abstract'
p3630
I0
sS'pre2affiliation'
p3631
I0
sS'pre3title'
p3632
I0
sg32
I0
sS'pre3pubnum'
p3633
I0
sg34
I487
sS'pre3date'
p3634
I0
sS'next4title'
p3635
I0
sS'next3email'
p3636
I0
sg38
I0
sS'next1abstract'
p3637
I0
sS'pre2phone'
p3638
I0
sS'pre4affiliation'
p3639
I0
sS'pre2intro'
p3640
I0
sS'next2date'
p3641
I0
sS'pre3intro'
p3642
I0
sS'next2note'
p3643
I0
sS'next3title'
p3644
I0
sS'next3keyword'
p3645
I0
sS'pre2pubnum'
p3646
I0
sS'next4affiliation'
p3647
I0
sS'next2pubnum'
p3648
I0
sS'pre4note'
p3649
I0
sg52
I0
sg53
F0.0
sS'pre3web'
p3650
I0
sS'next4pubnum'
p3651
I0
sS'next4degree'
p3652
I0
sg57
I0
sS'pre3author'
p3653
F0.5
sS'pre4web'
p3654
I0
sS'next1note'
p3655
I0
sS'pre3abstract'
p3656
I0
sg62
F0.3125
sS'pre1degree'
p3657
I0
sS'pre4abstract'
p3658
I0
sS'pre2degree'
p3659
F0.5
sS'next3degree'
p3660
I0
sS'next4abstract'
p3661
I0
sS'next1keyword'
p3662
I0
sS'pre3phone'
p3663
I0
sS'pre1note'
p3664
I0
sS'pre4keyword'
p3665
I0
sg72
I4
sS'pre4address'
p3666
I0
sS'pre2date'
p3667
I0
sS'next2title'
p3668
I0
sS'pre3address'
p3669
I0
sS'next1pubnum'
p3670
I0
sS'next2author'
p3671
I0
sS'pre2web'
p3672
I0
sS'next1email'
p3673
I0
sg81
S'degree'
p3674
sS'pre1web'
p3675
I0
sS'pre4email'
p3676
I0
sS'pre1keyword'
p3677
I0
sS'pre4date'
p3678
I0
sS'next1affiliation'
p3679
I0
sS'next2degree'
p3680
I0
sS'pre1phone'
p3681
I0
sg90
g91
sg92
I0
sS'pre2abstract'
p3682
I0
sS'next1intro'
p3683
I0
sS'next2intro'
p3684
I0
sS'pre3degree'
p3685
I0
sS'pre1author'
p3686
I0
sS'next3page'
p3687
I0
sS'next3web'
p3688
I0
sS'next4date'
p3689
I0
sg101
F0.375
sg102
F0.0
sg103
I0
sS'pre2author'
p3690
I0
sg105
I0
sS'next2page'
p3691
F0.5
sS'next3pubnum'
p3692
I0
sS'next1degree'
p3693
I0
sS'pre1date'
p3694
I0
sS'pre4phone'
p3695
I0
sg111
I0
sS'next4intro'
p3696
I0
sg113
F0.0
sS'next2affiliation'
p3697
I0
sS'next4author'
p3698
I0
sS'next4note'
p3699
I0
sS'pre1pubnum'
p3700
I0
sg118
I0
sg119
I0
sS'next2address'
p3701
I0
sS'next2keyword'
p3702
I0
sS'next3note'
p3703
I0
sS'next3affiliation'
p3704
I0
sS'pre4degree'
p3705
I0
sS'next4email'
p3706
I0
sg126
F0.6428571428571429
sS'next1web'
p3707
I0
sS'next2email'
p3708
I0
sS'next2web'
p3709
I0
sg130
F0.0
sS'pre3page'
p3710
I0
sS'next3author'
p3711
I0
sS'pre1address'
p3712
I0
sS'pre2email'
p3713
I0
sS'next4web'
p3714
I0
sS'pre4author'
p3715
I0
sS'pre1title'
p3716
I0
sS'next4page'
p3717
I0
sg139
I2
sS'next4keyword'
p3718
I0
sg141
I0
sS'next1phone'
p3719
I0
sS'pre4intro'
p3720
I0
sS'pre3keyword'
p3721
I0
sS'pre2title'
p3722
I0
sS'pre3email'
p3723
I0
sS'pre4title'
p3724
F0.5
sS'next3date'
p3725
I0
sS'next2phone'
p3726
I0
sS'next1date'
p3727
F0.5
sg151
F0.0
sS'pre1intro'
p3728
I0
sS'pre2page'
p3729
I0
sS'next2abstract'
p3730
I0
sS'next4address'
p3731
I0
sS'next1title'
p3732
I0
sS'pre1page'
p3733
I0
sg158
I0
sg159
F0.3571428571428571
sg160
I0
sa(dp3734
S'pre4pubnum'
p3735
I0
sS'next1page'
p3736
I0
sS'pre2keyword'
p3737
I0
sS'next3address'
p3738
I0
sS'pre3affiliation'
p3739
I0
sS'pre1email'
p3740
I0
sS'next3intro'
p3741
I0
sS'pre4page'
p3742
I0
sg10
I0
sg11
F0.65
sS'next4phone'
p3743
I0
sg13
S'"<degree> A Thesis Submitted to the Faculty in partial fulfillment of the requirements for the degree of Doctor of Philosophy in  </degree>::line_number::1"'
p3744
sg15
I0
sg16
I0
sS'next1author'
p3745
I0
sg18
F0.0
sg19
I0
sg20
F0.0
sg21
F0.0
sS'pre3note'
p3746
I0
sS'next3phone'
p3747
I0
sS'pre2note'
p3748
I0
sS'next1address'
p3749
I0
sS'pre1affiliation'
p3750
I0
sS'pre2address'
p3751
I0
sS'pre1abstract'
p3752
I0
sS'next3abstract'
p3753
I0
sS'pre2affiliation'
p3754
I0
sS'pre3title'
p3755
I0
sg32
I0
sS'pre3pubnum'
p3756
I0
sg34
I582
sS'pre3date'
p3757
I0
sS'next4title'
p3758
I0
sS'next3email'
p3759
I0
sg38
I0
sS'next1abstract'
p3760
I0
sS'pre2phone'
p3761
I0
sS'pre4affiliation'
p3762
I0
sS'pre2intro'
p3763
I0
sS'next2date'
p3764
I0
sS'pre3intro'
p3765
I0
sS'next2note'
p3766
I0
sS'next3title'
p3767
I0
sS'next3keyword'
p3768
I0
sS'pre2pubnum'
p3769
I0
sS'next4affiliation'
p3770
I0
sS'next2pubnum'
p3771
I0
sS'pre4note'
p3772
I0
sg52
I0
sg53
F0.0
sS'pre3web'
p3773
I0
sS'next4pubnum'
p3774
I0
sS'next4degree'
p3775
I0
sg57
I0
sS'pre3author'
p3776
I0
sS'pre4web'
p3777
I0
sS'next1note'
p3778
I0
sS'pre3abstract'
p3779
I0
sg62
F0.35
sS'pre1degree'
p3780
I0
sS'pre4abstract'
p3781
I0
sS'pre2degree'
p3782
I0
sS'next3degree'
p3783
I0
sS'next4abstract'
p3784
I0
sS'next1keyword'
p3785
I0
sS'pre3phone'
p3786
I0
sS'pre1note'
p3787
I0
sS'pre4keyword'
p3788
I0
sg72
I5
sS'pre4address'
p3789
I0
sS'pre2date'
p3790
I0
sS'next2title'
p3791
I0
sS'pre3address'
p3792
I0
sS'next1pubnum'
p3793
I0
sS'next2author'
p3794
F0.5
sS'pre2web'
p3795
I0
sS'next1email'
p3796
I0
sg81
S'degree'
p3797
sS'pre1web'
p3798
I0
sS'pre4email'
p3799
I0
sS'pre1keyword'
p3800
I0
sS'pre4date'
p3801
I0
sS'next1affiliation'
p3802
F0.5
sS'next2degree'
p3803
I0
sS'pre1phone'
p3804
I0
sg90
g232
sg92
I0
sS'pre2abstract'
p3805
I0
sS'next1intro'
p3806
I0
sS'next2intro'
p3807
I0
sS'pre3degree'
p3808
I0
sS'pre1author'
p3809
I0
sS'next3page'
p3810
I0
sS'next3web'
p3811
I0
sS'next4date'
p3812
I0
sg101
F0.35
sg102
F0.0
sg103
I0
sS'pre2author'
p3813
I0
sg105
I0
sS'next2page'
p3814
I0
sS'next3pubnum'
p3815
I0
sS'next1degree'
p3816
I0
sS'pre1date'
p3817
I0
sS'pre4phone'
p3818
I0
sg111
I0
sS'next4intro'
p3819
I0
sg113
F0.0
sS'next2affiliation'
p3820
I0
sS'next4author'
p3821
I0
sS'next4note'
p3822
I0
sS'pre1pubnum'
p3823
I0
sg118
I0
sg119
I0
sS'next2address'
p3824
I0
sS'next2keyword'
p3825
I0
sS'next3note'
p3826
I0
sS'next3affiliation'
p3827
F0.5
sS'pre4degree'
p3828
I0
sS'next4email'
p3829
I0
sg126
F0.7142857142857143
sS'next1web'
p3830
I0
sS'next2email'
p3831
I0
sS'next2web'
p3832
I0
sg130
F0.0
sS'pre3page'
p3833
I0
sS'next3author'
p3834
I0
sS'pre1address'
p3835
I0
sS'pre2email'
p3836
I0
sS'next4web'
p3837
I0
sS'pre4author'
p3838
I0
sS'pre1title'
p3839
F0.5
sS'next4page'
p3840
I0
sg139
I1
sS'next4keyword'
p3841
I0
sg141
I0
sS'next1phone'
p3842
I0
sS'pre4intro'
p3843
I0
sS'pre3keyword'
p3844
I0
sS'pre2title'
p3845
I0
sS'pre3email'
p3846
I0
sS'pre4title'
p3847
I0
sS'next3date'
p3848
I0
sS'next2phone'
p3849
I0
sS'next1date'
p3850
I0
sg151
F0.0
sS'pre1intro'
p3851
I0
sS'pre2page'
p3852
I0
sS'next2abstract'
p3853
I0
sS'next4address'
p3854
F0.5
sS'next1title'
p3855
I0
sS'pre1page'
p3856
I0
sg158
I0
sg159
F0.2857142857142857
sg160
I0
sa(dp3857
S'pre4pubnum'
p3858
I0
sS'next1page'
p3859
F0.5
sS'pre2keyword'
p3860
I0
sS'next3address'
p3861
I0
sS'pre3affiliation'
p3862
F0.5
sS'pre1email'
p3863
I0
sS'next3intro'
p3864
I0
sS'pre4page'
p3865
I0
sg10
I9
sg11
F0.7
sS'next4phone'
p3866
I0
sg13
S'"<degree> Examining Committee: (chairman) John Danskin Henry Baird Dennis Healy Geoff Davis Neal Young Roger D. Sloboda Dean of Graduate Studies  </degree>::line_number::7"'
p3867
sg15
I0
sg16
I0
sS'next1author'
p3868
I0
sg18
F0.0
sg19
I0
sg20
F0.0
sg21
F0.0
sS'pre3note'
p3869
I0
sS'next3phone'
p3870
I0
sS'pre2note'
p3871
I0
sS'next1address'
p3872
I0
sS'pre1affiliation'
p3873
I0
sS'pre2address'
p3874
F0.5
sS'pre1abstract'
p3875
I0
sS'next3abstract'
p3876
I0
sS'pre2affiliation'
p3877
I0
sS'pre3title'
p3878
I0
sg32
I0
sS'pre3pubnum'
p3879
I0
sg34
I582
sS'pre3date'
p3880
I0
sS'next4title'
p3881
I0
sS'next3email'
p3882
I0
sg38
I0
sS'next1abstract'
p3883
I0
sS'pre2phone'
p3884
I0
sS'pre4affiliation'
p3885
I0
sS'pre2intro'
p3886
I0
sS'next2date'
p3887
I0
sS'pre3intro'
p3888
I0
sS'next2note'
p3889
I0
sS'next3title'
p3890
I0
sS'next3keyword'
p3891
I0
sS'pre2pubnum'
p3892
I0
sS'next4affiliation'
p3893
I0
sS'next2pubnum'
p3894
I0
sS'pre4note'
p3895
I0
sg52
I0
sg53
F0.0
sS'pre3web'
p3896
I0
sS'next4pubnum'
p3897
I0
sS'next4degree'
p3898
I0
sg57
I0
sS'pre3author'
p3899
I0
sS'pre4web'
p3900
I0
sS'next1note'
p3901
I0
sS'pre3abstract'
p3902
I0
sg62
F0.05
sS'pre1degree'
p3903
I0
sS'pre4abstract'
p3904
I0
sS'pre2degree'
p3905
I0
sS'next3degree'
p3906
I0
sS'next4abstract'
p3907
I0
sS'next1keyword'
p3908
I0
sS'pre3phone'
p3909
I0
sS'pre1note'
p3910
I0
sS'pre4keyword'
p3911
I0
sg72
I5
sS'pre4address'
p3912
I0
sS'pre2date'
p3913
I0
sS'next2title'
p3914
I0
sS'pre3address'
p3915
I0
sS'next1pubnum'
p3916
I0
sS'next2author'
p3917
I0
sS'pre2web'
p3918
I0
sS'next1email'
p3919
I0
sg81
S'degree'
p3920
sS'pre1web'
p3921
I0
sS'pre4email'
p3922
I0
sS'pre1keyword'
p3923
I0
sS'pre4date'
p3924
I0
sS'next1affiliation'
p3925
I0
sS'next2degree'
p3926
I0
sS'pre1phone'
p3927
I0
sg90
S'7'
p3928
sg92
I0
sS'pre2abstract'
p3929
I0
sS'next1intro'
p3930
I0
sS'next2intro'
p3931
I0
sS'pre3degree'
p3932
I0
sS'pre1author'
p3933
I0
sS'next3page'
p3934
I0
sS'next3web'
p3935
I0
sS'next4date'
p3936
I0
sg101
F0.30000000000000004
sg102
F0.0
sg103
I0
sS'pre2author'
p3937
I0
sg105
I0
sS'next2page'
p3938
I0
sS'next3pubnum'
p3939
I0
sS'next1degree'
p3940
I0
sS'pre1date'
p3941
F0.5
sS'pre4phone'
p3942
I0
sg111
I0
sS'next4intro'
p3943
I0
sg113
F0.0
sS'next2affiliation'
p3944
I0
sS'next4author'
p3945
I0
sS'next4note'
p3946
I0
sS'pre1pubnum'
p3947
I0
sg118
I0
sg119
I1
sS'next2address'
p3948
I0
sS'next2keyword'
p3949
I0
sS'next3note'
p3950
I0
sS'next3affiliation'
p3951
I0
sS'pre4degree'
p3952
I0
sS'next4email'
p3953
I0
sg126
F0.6842105263157895
sS'next1web'
p3954
I0
sS'next2email'
p3955
I0
sS'next2web'
p3956
I0
sg130
F0.0
sS'pre3page'
p3957
I0
sS'next3author'
p3958
I0
sS'pre1address'
p3959
I0
sS'pre2email'
p3960
I0
sS'next4web'
p3961
I0
sS'pre4author'
p3962
F0.5
sS'pre1title'
p3963
I0
sS'next4page'
p3964
I0
sg139
I1
sS'next4keyword'
p3965
I0
sg141
I0
sS'next1phone'
p3966
I0
sS'pre4intro'
p3967
I0
sS'pre3keyword'
p3968
I0
sS'pre2title'
p3969
I0
sS'pre3email'
p3970
I0
sS'pre4title'
p3971
I0
sS'next3date'
p3972
I0
sS'next2phone'
p3973
I0
sS'next1date'
p3974
I0
sg151
F0.0
sS'pre1intro'
p3975
I0
sS'pre2page'
p3976
I0
sS'next2abstract'
p3977
I0
sS'next4address'
p3978
I0
sS'next1title'
p3979
I0
sS'pre1page'
p3980
I0
sg158
I0
sg159
F0.3157894736842105
sg160
I0
sa(dp3981
S'pre4pubnum'
p3982
I0
sS'next1page'
p3983
I0
sS'pre2keyword'
p3984
I0
sS'next3address'
p3985
I0
sS'pre3affiliation'
p3986
I0
sS'pre1email'
p3987
I0
sS'next3intro'
p3988
I0
sS'pre4page'
p3989
I0
sg10
I0
sg11
F0.6086956521739131
sS'next4phone'
p3990
I0
sg13
S'"<degree> Submitted to the faculty of the University Graduate School in partial fulfillment of the requirements for the degree Doctor of Philosophy in the </degree>::line_number::2"'
p3991
sg15
I0
sg16
I0
sS'next1author'
p3992
I0
sg18
F0.0
sg19
I0
sg20
F0.0
sg21
F0.043478260869565216
sS'pre3note'
p3993
I0
sS'next3phone'
p3994
I0
sS'pre2note'
p3995
I0
sS'next1address'
p3996
I0
sS'pre1affiliation'
p3997
I0
sS'pre2address'
p3998
I0
sS'pre1abstract'
p3999
I0
sS'next3abstract'
p4000
I0
sS'pre2affiliation'
p4001
I0
sS'pre3title'
p4002
I0
sg32
I0
sS'pre3pubnum'
p4003
I0
sg34
I605
sS'pre3date'
p4004
I0
sS'next4title'
p4005
I0
sS'next3email'
p4006
I0
sg38
I0
sS'next1abstract'
p4007
I0
sS'pre2phone'
p4008
I0
sS'pre4affiliation'
p4009
I0
sS'pre2intro'
p4010
I0
sS'next2date'
p4011
F0.5
sS'pre3intro'
p4012
I0
sS'next2note'
p4013
I0
sS'next3title'
p4014
I0
sS'next3keyword'
p4015
I0
sS'pre2pubnum'
p4016
I0
sS'next4affiliation'
p4017
I0
sS'next2pubnum'
p4018
I0
sS'pre4note'
p4019
I0
sg52
I1
sg53
F0.0
sS'pre3web'
p4020
I0
sS'next4pubnum'
p4021
I0
sS'next4degree'
p4022
I0
sg57
I0
sS'pre3author'
p4023
I0
sS'pre4web'
p4024
I0
sS'next1note'
p4025
I0
sS'pre3abstract'
p4026
I0
sg62
F0.391304347826087
sS'pre1degree'
p4027
I0
sS'pre4abstract'
p4028
I0
sS'pre2degree'
p4029
I0
sS'next3degree'
p4030
I0
sS'next4abstract'
p4031
I0
sS'next1keyword'
p4032
I0
sS'pre3phone'
p4033
I0
sS'pre1note'
p4034
I0
sS'pre4keyword'
p4035
I0
sg72
I6
sS'pre4address'
p4036
I0
sS'pre2date'
p4037
I0
sS'next2title'
p4038
I0
sS'pre3address'
p4039
I0
sS'next1pubnum'
p4040
I0
sS'next2author'
p4041
I0
sS'pre2web'
p4042
I0
sS'next1email'
p4043
I0
sg81
S'degree'
p4044
sS'pre1web'
p4045
I0
sS'pre4email'
p4046
I0
sS'pre1keyword'
p4047
I0
sS'pre4date'
p4048
I0
sS'next1affiliation'
p4049
F0.5
sS'next2degree'
p4050
I0
sS'pre1phone'
p4051
I0
sg90
g726
sg92
I0
sS'pre2abstract'
p4052
I0
sS'next1intro'
p4053
I0
sS'next2intro'
p4054
I0
sS'pre3degree'
p4055
I0
sS'pre1author'
p4056
F0.5
sS'next3page'
p4057
F0.5
sS'next3web'
p4058
I0
sS'next4date'
p4059
I0
sg101
F0.3913043478260869
sg102
F0.0
sg103
I0
sS'pre2author'
p4060
I0
sg105
I0
sS'next2page'
p4061
I0
sS'next3pubnum'
p4062
I0
sS'next1degree'
p4063
I0
sS'pre1date'
p4064
I0
sS'pre4phone'
p4065
I0
sg111
I0
sS'next4intro'
p4066
I0
sg113
F0.08695652173913043
sS'next2affiliation'
p4067
I0
sS'next4author'
p4068
I0
sS'next4note'
p4069
I0
sS'pre1pubnum'
p4070
I0
sg118
I0
sg119
I0
sS'next2address'
p4071
I0
sS'next2keyword'
p4072
I0
sS'next3note'
p4073
I0
sS'next3affiliation'
p4074
I0
sS'pre4degree'
p4075
I0
sS'next4email'
p4076
I0
sg126
F0.7142857142857143
sS'next1web'
p4077
I0
sS'next2email'
p4078
I0
sS'next2web'
p4079
I0
sg130
F0.0
sS'pre3page'
p4080
I0
sS'next3author'
p4081
I0
sS'pre1address'
p4082
I0
sS'pre2email'
p4083
I0
sS'next4web'
p4084
I0
sS'pre4author'
p4085
I0
sS'pre1title'
p4086
I0
sS'next4page'
p4087
I0
sg139
I0
sS'next4keyword'
p4088
I0
sg141
I2
sS'next1phone'
p4089
I0
sS'pre4intro'
p4090
I0
sS'pre3keyword'
p4091
I0
sS'pre2title'
p4092
F0.5
sS'pre3email'
p4093
I0
sS'pre4title'
p4094
I0
sS'next3date'
p4095
I0
sS'next2phone'
p4096
I0
sS'next1date'
p4097
I0
sg151
F0.0
sS'pre1intro'
p4098
I0
sS'pre2page'
p4099
I0
sS'next2abstract'
p4100
I0
sS'next4address'
p4101
I0
sS'next1title'
p4102
I0
sS'pre1page'
p4103
I0
sg158
I0
sg159
F0.2857142857142857
sg160
I0
sa(dp4104
S'pre4pubnum'
p4105
I0
sS'next1page'
p4106
I0
sS'pre2keyword'
p4107
I0
sS'next3address'
p4108
I0
sS'pre3affiliation'
p4109
I0
sS'pre1email'
p4110
I0
sS'next3intro'
p4111
I0
sS'pre4page'
p4112
I0
sg10
I0
sg11
F0.5172413793103449
sS'next4phone'
p4113
I0
sg13
S'"<degree> B.S. (Stanford University) 1983 M.S. (University of California at Los Angeles) 1989 A dissertation submitted in partial satisfaction of the requirements for the degree of Doctor of Philosophy in  </degree>::line_number::2"'
p4114
sg15
I0
sg16
I0
sS'next1author'
p4115
I0
sg18
F0.04790419161676647
sg19
I0
sg20
F0.0
sg21
F0.0
sS'pre3note'
p4116
I0
sS'next3phone'
p4117
I0
sS'pre2note'
p4118
I0
sS'next1address'
p4119
I0
sS'pre1affiliation'
p4120
I0
sS'pre2address'
p4121
I0
sS'pre1abstract'
p4122
I0
sS'next3abstract'
p4123
I0
sS'pre2affiliation'
p4124
I0
sS'pre3title'
p4125
I0
sg32
I0
sS'pre3pubnum'
p4126
I0
sg34
I635
sS'pre3date'
p4127
I0
sS'next4title'
p4128
I0
sS'next3email'
p4129
I0
sg38
I0
sS'next1abstract'
p4130
I0
sS'pre2phone'
p4131
I0
sS'pre4affiliation'
p4132
I0
sS'pre2intro'
p4133
I0
sS'next2date'
p4134
I0
sS'pre3intro'
p4135
I0
sS'next2note'
p4136
I0
sS'next3title'
p4137
I0
sS'next3keyword'
p4138
I0
sS'pre2pubnum'
p4139
I0
sS'next4affiliation'
p4140
I0
sS'next2pubnum'
p4141
I0
sS'pre4note'
p4142
I0
sg52
I0
sg53
F0.06896551724137931
sS'pre3web'
p4143
I0
sS'next4pubnum'
p4144
I0
sS'next4degree'
p4145
F0.5
sg57
I0
sS'pre3author'
p4146
I0
sS'pre4web'
p4147
I0
sS'next1note'
p4148
I0
sS'pre3abstract'
p4149
I0
sg62
F0.20689655172413793
sS'pre1degree'
p4150
I0
sS'pre4abstract'
p4151
I0
sS'pre2degree'
p4152
I0
sS'next3degree'
p4153
I0
sS'next4abstract'
p4154
I0
sS'next1keyword'
p4155
I0
sS'pre3phone'
p4156
I0
sS'pre1note'
p4157
I0
sS'pre4keyword'
p4158
I0
sg72
I9
sS'pre4address'
p4159
I0
sS'pre2date'
p4160
I0
sS'next2title'
p4161
I0
sS'pre3address'
p4162
I0
sS'next1pubnum'
p4163
I0
sS'next2author'
p4164
I0
sS'pre2web'
p4165
I0
sS'next1email'
p4166
I0
sg81
S'degree'
p4167
sS'pre1web'
p4168
I0
sS'pre4email'
p4169
I0
sS'pre1keyword'
p4170
I0
sS'pre4date'
p4171
I0
sS'next1affiliation'
p4172
F0.5
sS'next2degree'
p4173
F0.5
sS'pre1phone'
p4174
I0
sg90
g726
sg92
I1
sS'pre2abstract'
p4175
I0
sS'next1intro'
p4176
I0
sS'next2intro'
p4177
I0
sS'pre3degree'
p4178
I0
sS'pre1author'
p4179
F0.5
sS'next3page'
p4180
I0
sS'next3web'
p4181
I0
sS'next4date'
p4182
I0
sg101
F0.48275862068965514
sg102
F0.0
sg103
I0
sS'pre2author'
p4183
I0
sg105
I0
sS'next2page'
p4184
I0
sS'next3pubnum'
p4185
I0
sS'next1degree'
p4186
I0
sS'pre1date'
p4187
I0
sS'pre4phone'
p4188
I0
sg111
I0
sS'next4intro'
p4189
I0
sg113
F0.0
sS'next2affiliation'
p4190
I0
sS'next4author'
p4191
I0
sS'next4note'
p4192
I0
sS'pre1pubnum'
p4193
I0
sg118
I0
sg119
I0
sS'next2address'
p4194
I0
sS'next2keyword'
p4195
I0
sS'next3note'
p4196
I0
sS'next3affiliation'
p4197
F0.5
sS'pre4degree'
p4198
I0
sS'next4email'
p4199
I0
sg126
F0.4
sS'next1web'
p4200
I0
sS'next2email'
p4201
I0
sS'next2web'
p4202
I0
sg130
F0.0
sS'pre3page'
p4203
I0
sS'next3author'
p4204
I0
sS'pre1address'
p4205
I0
sS'pre2email'
p4206
I0
sS'next4web'
p4207
I0
sS'pre4author'
p4208
I0
sS'pre1title'
p4209
I0
sS'next4page'
p4210
I0
sg139
I1
sS'next4keyword'
p4211
I0
sg141
I0
sS'next1phone'
p4212
I0
sS'pre4intro'
p4213
I0
sS'pre3keyword'
p4214
I0
sS'pre2title'
p4215
F0.5
sS'pre3email'
p4216
I0
sS'pre4title'
p4217
I0
sS'next3date'
p4218
I0
sS'next2phone'
p4219
I0
sS'next1date'
p4220
I0
sg151
F0.0
sS'pre1intro'
p4221
I0
sS'pre2page'
p4222
I0
sS'next2abstract'
p4223
I0
sS'next4address'
p4224
I0
sS'next1title'
p4225
I0
sS'pre1page'
p4226
I0
sg158
I0
sg159
F0.6
sg160
I0
sa(dp4227
S'pre4pubnum'
p4228
I0
sS'next1page'
p4229
I0
sS'pre2keyword'
p4230
I0
sS'next3address'
p4231
I0
sS'pre3affiliation'
p4232
I0
sS'pre1email'
p4233
I0
sS'next3intro'
p4234
I0
sS'pre4page'
p4235
I0
sg10
I0
sg11
F0.6666666666666666
sS'next4phone'
p4236
I0
sg13
S'"<degree> in the GRADUATE DIVISION of the  </degree>::line_number::4"'
p4237
sg15
I0
sg16
I0
sS'next1author'
p4238
I0
sg18
F0.0
sg19
I0
sg20
F0.0
sg21
F0.0
sS'pre3note'
p4239
I0
sS'next3phone'
p4240
I0
sS'pre2note'
p4241
I0
sS'next1address'
p4242
I0
sS'pre1affiliation'
p4243
F0.5
sS'pre2address'
p4244
I0
sS'pre1abstract'
p4245
I0
sS'next3abstract'
p4246
I0
sS'pre2affiliation'
p4247
I0
sS'pre3title'
p4248
I0
sg32
I0
sS'pre3pubnum'
p4249
I0
sg34
I635
sS'pre3date'
p4250
I0
sS'next4title'
p4251
I0
sS'next3email'
p4252
I0
sg38
I0
sS'next1abstract'
p4253
I0
sS'pre2phone'
p4254
I0
sS'pre4affiliation'
p4255
I0
sS'pre2intro'
p4256
I0
sS'next2date'
p4257
I0
sS'pre3intro'
p4258
I0
sS'next2note'
p4259
I0
sS'next3title'
p4260
I0
sS'next3keyword'
p4261
I0
sS'pre2pubnum'
p4262
I0
sS'next4affiliation'
p4263
I0
sS'next2pubnum'
p4264
I0
sS'pre4note'
p4265
I0
sg52
I0
sg53
F0.0
sS'pre3web'
p4266
I0
sS'next4pubnum'
p4267
I0
sS'next4degree'
p4268
I0
sg57
I0
sS'pre3author'
p4269
F0.5
sS'pre4web'
p4270
I0
sS'next1note'
p4271
I0
sS'pre3abstract'
p4272
I0
sg62
F0.3333333333333333
sS'pre1degree'
p4273
I0
sS'pre4abstract'
p4274
I0
sS'pre2degree'
p4275
F0.5
sS'next3degree'
p4276
I0
sS'next4abstract'
p4277
I0
sS'next1keyword'
p4278
I0
sS'pre3phone'
p4279
I0
sS'pre1note'
p4280
I0
sS'pre4keyword'
p4281
I0
sg72
I3
sS'pre4address'
p4282
I0
sS'pre2date'
p4283
I0
sS'next2title'
p4284
I0
sS'pre3address'
p4285
I0
sS'next1pubnum'
p4286
I0
sS'next2author'
p4287
I0
sS'pre2web'
p4288
I0
sS'next1email'
p4289
I0
sg81
S'degree'
p4290
sS'pre1web'
p4291
I0
sS'pre4email'
p4292
I0
sS'pre1keyword'
p4293
I0
sS'pre4date'
p4294
I0
sS'next1affiliation'
p4295
F0.5
sS'next2degree'
p4296
F0.5
sS'pre1phone'
p4297
I0
sg90
g91
sg92
I0
sS'pre2abstract'
p4298
I0
sS'next1intro'
p4299
I0
sS'next2intro'
p4300
I0
sS'pre3degree'
p4301
I0
sS'pre1author'
p4302
I0
sS'next3page'
p4303
I0
sS'next3web'
p4304
I0
sS'next4date'
p4305
I0
sg101
F0.33333333333333337
sg102
F0.0
sg103
I0
sS'pre2author'
p4306
I0
sg105
I0
sS'next2page'
p4307
I0
sS'next3pubnum'
p4308
I0
sS'next1degree'
p4309
I0
sS'pre1date'
p4310
I0
sS'pre4phone'
p4311
I0
sg111
I0
sS'next4intro'
p4312
I0
sg113
F0.16666666666666666
sS'next2affiliation'
p4313
I0
sS'next4author'
p4314
I0
sS'next4note'
p4315
I0
sS'pre1pubnum'
p4316
I0
sg118
I0
sg119
I0
sS'next2address'
p4317
I0
sS'next2keyword'
p4318
I0
sS'next3note'
p4319
I0
sS'next3affiliation'
p4320
I0
sS'pre4degree'
p4321
I0
sS'next4email'
p4322
I0
sg126
F0.6666666666666666
sS'next1web'
p4323
I0
sS'next2email'
p4324
I0
sS'next2web'
p4325
I0
sg130
F0.0
sS'pre3page'
p4326
I0
sS'next3author'
p4327
I0
sS'pre1address'
p4328
I0
sS'pre2email'
p4329
I0
sS'next4web'
p4330
I0
sS'pre4author'
p4331
I0
sS'pre1title'
p4332
I0
sS'next4page'
p4333
F0.5
sg139
I0
sS'next4keyword'
p4334
I0
sg141
I1
sS'next1phone'
p4335
I0
sS'pre4intro'
p4336
I0
sS'pre3keyword'
p4337
I0
sS'pre2title'
p4338
I0
sS'pre3email'
p4339
I0
sS'pre4title'
p4340
F0.5
sS'next3date'
p4341
F0.5
sS'next2phone'
p4342
I0
sS'next1date'
p4343
I0
sg151
F0.0
sS'pre1intro'
p4344
I0
sS'pre2page'
p4345
I0
sS'next2abstract'
p4346
I0
sS'next4address'
p4347
I0
sS'next1title'
p4348
I0
sS'pre1page'
p4349
I0
sg158
I0
sg159
F0.33333333333333337
sg160
I0
sa(dp4350
S'pre4pubnum'
p4351
I0
sS'next1page'
p4352
I0
sS'pre2keyword'
p4353
I0
sS'next3address'
p4354
I0
sS'pre3affiliation'
p4355
F0.5
sS'pre1email'
p4356
I0
sS'next3intro'
p4357
I0
sS'pre4page'
p4358
I0
sg10
I5
sg11
F0.7647058823529411
sS'next4phone'
p4359
I0
sg13
S'"<degree> Committee in charge: Professor Carlo H. Sequin , Chair Professor Lawrence Rowe Professor Jean Pierre Protzen  </degree>::line_number::6"'
p4360
sg15
I0
sg16
I0
sS'next1author'
p4361
I0
sg18
F0.0
sg19
I0
sg20
F0.0
sg21
F0.0
sS'pre3note'
p4362
I0
sS'next3phone'
p4363
I0
sS'pre2note'
p4364
I0
sS'next1address'
p4365
I0
sS'pre1affiliation'
p4366
F0.5
sS'pre2address'
p4367
I0
sS'pre1abstract'
p4368
I0
sS'next3abstract'
p4369
I0
sS'pre2affiliation'
p4370
I0
sS'pre3title'
p4371
I0
sg32
I0
sS'pre3pubnum'
p4372
I0
sg34
I635
sS'pre3date'
p4373
I0
sS'next4title'
p4374
I0
sS'next3email'
p4375
I0
sg38
I0
sS'next1abstract'
p4376
I0
sS'pre2phone'
p4377
I0
sS'pre4affiliation'
p4378
I0
sS'pre2intro'
p4379
I0
sS'next2date'
p4380
I0
sS'pre3intro'
p4381
I0
sS'next2note'
p4382
I0
sS'next3title'
p4383
I0
sS'next3keyword'
p4384
I0
sS'pre2pubnum'
p4385
I0
sS'next4affiliation'
p4386
I0
sS'next2pubnum'
p4387
I0
sS'pre4note'
p4388
I0
sg52
I0
sg53
F0.0
sS'pre3web'
p4389
I0
sS'next4pubnum'
p4390
I0
sS'next4degree'
p4391
I0
sg57
I0
sS'pre3author'
p4392
I0
sS'pre4web'
p4393
I0
sS'next1note'
p4394
I0
sS'pre3abstract'
p4395
I0
sg62
F0.29411764705882354
sS'pre1degree'
p4396
I0
sS'pre4abstract'
p4397
I0
sS'pre2degree'
p4398
F0.5
sS'next3degree'
p4399
I0
sS'next4abstract'
p4400
I0
sS'next1keyword'
p4401
I0
sS'pre3phone'
p4402
I0
sS'pre1note'
p4403
I0
sS'pre4keyword'
p4404
I0
sg72
I5
sS'pre4address'
p4405
I0
sS'pre2date'
p4406
I0
sS'next2title'
p4407
I0
sS'pre3address'
p4408
I0
sS'next1pubnum'
p4409
I0
sS'next2author'
p4410
I0
sS'pre2web'
p4411
I0
sS'next1email'
p4412
I0
sg81
S'degree'
p4413
sS'pre1web'
p4414
I0
sS'pre4email'
p4415
I0
sS'pre1keyword'
p4416
I0
sS'pre4date'
p4417
I0
sS'next1affiliation'
p4418
I0
sS'next2degree'
p4419
I0
sS'pre1phone'
p4420
I0
sg90
g1342
sg92
I0
sS'pre2abstract'
p4421
I0
sS'next1intro'
p4422
I0
sS'next2intro'
p4423
I0
sS'pre3degree'
p4424
I0
sS'pre1author'
p4425
I0
sS'next3page'
p4426
I0
sS'next3web'
p4427
I0
sS'next4date'
p4428
I0
sg101
F0.23529411764705888
sg102
F0.0
sg103
I0
sS'pre2author'
p4429
I0
sg105
I0
sS'next2page'
p4430
F0.5
sS'next3pubnum'
p4431
I0
sS'next1degree'
p4432
I0
sS'pre1date'
p4433
I0
sS'pre4phone'
p4434
I0
sg111
I0
sS'next4intro'
p4435
I0
sg113
F0.0
sS'next2affiliation'
p4436
I0
sS'next4author'
p4437
I0
sS'next4note'
p4438
I0
sS'pre1pubnum'
p4439
I0
sg118
I0
sg119
I2
sS'next2address'
p4440
I0
sS'next2keyword'
p4441
I0
sS'next3note'
p4442
I0
sS'next3affiliation'
p4443
I0
sS'pre4degree'
p4444
F0.5
sS'next4email'
p4445
I0
sg126
F0.8571428571428571
sS'next1web'
p4446
I0
sS'next2email'
p4447
I0
sS'next2web'
p4448
I0
sg130
F0.0
sS'pre3page'
p4449
I0
sS'next3author'
p4450
I0
sS'pre1address'
p4451
I0
sS'pre2email'
p4452
I0
sS'next4web'
p4453
I0
sS'pre4author'
p4454
I0
sS'pre1title'
p4455
I0
sS'next4page'
p4456
I0
sg139
I1
sS'next4keyword'
p4457
I0
sg141
I0
sS'next1phone'
p4458
I0
sS'pre4intro'
p4459
I0
sS'pre3keyword'
p4460
I0
sS'pre2title'
p4461
I0
sS'pre3email'
p4462
I0
sS'pre4title'
p4463
I0
sS'next3date'
p4464
I0
sS'next2phone'
p4465
I0
sS'next1date'
p4466
F0.5
sg151
F0.0
sS'pre1intro'
p4467
I0
sS'pre2page'
p4468
I0
sS'next2abstract'
p4469
I0
sS'next4address'
p4470
I0
sS'next1title'
p4471
I0
sS'pre1page'
p4472
I0
sg158
I0
sg159
F0.1428571428571429
sg160
I0
sa(dp4473
S'pre4pubnum'
p4474
I0
sS'next1page'
p4475
I0
sS'pre2keyword'
p4476
I0
sS'next3address'
p4477
I0
sS'pre3affiliation'
p4478
I0
sS'pre1email'
p4479
I0
sS'next3intro'
p4480
I0
sS'pre4page'
p4481
I0
sg10
I0
sg11
F0.5
sS'next4phone'
p4482
I0
sg13
S'"<degree> MSc Dissertation  </degree>::line_number::2"'
p4483
sg15
I0
sg16
I0
sS'next1author'
p4484
I0
sg18
F0.0
sg19
I0
sg20
F0.0
sg21
F0.0
sS'pre3note'
p4485
I0
sS'next3phone'
p4486
I0
sS'pre2note'
p4487
I0
sS'next1address'
p4488
I0
sS'pre1affiliation'
p4489
I0
sS'pre2address'
p4490
I0
sS'pre1abstract'
p4491
I0
sS'next3abstract'
p4492
I0
sS'pre2affiliation'
p4493
I0
sS'pre3title'
p4494
I0
sg32
I0
sS'pre3pubnum'
p4495
I0
sg34
I639
sS'pre3date'
p4496
I0
sS'next4title'
p4497
I0
sS'next3email'
p4498
I0
sg38
I0
sS'next1abstract'
p4499
I0
sS'pre2phone'
p4500
I0
sS'pre4affiliation'
p4501
I0
sS'pre2intro'
p4502
I0
sS'next2date'
p4503
F0.5
sS'pre3intro'
p4504
I0
sS'next2note'
p4505
I0
sS'next3title'
p4506
I0
sS'next3keyword'
p4507
I0
sS'pre2pubnum'
p4508
I0
sS'next4affiliation'
p4509
I0
sS'next2pubnum'
p4510
I0
sS'pre4note'
p4511
I0
sg52
I0
sg53
F0.0
sS'pre3web'
p4512
I0
sS'next4pubnum'
p4513
I0
sS'next4degree'
p4514
I0
sg57
I0
sS'pre3author'
p4515
I0
sS'pre4web'
p4516
I0
sS'next1note'
p4517
I0
sS'pre3abstract'
p4518
I0
sg62
F0.5
sS'pre1degree'
p4519
I0
sS'pre4abstract'
p4520
I0
sS'pre2degree'
p4521
I0
sS'next3degree'
p4522
I0
sS'next4abstract'
p4523
I0
sS'next1keyword'
p4524
I0
sS'pre3phone'
p4525
I0
sS'pre1note'
p4526
I0
sS'pre4keyword'
p4527
I0
sg72
I1
sS'pre4address'
p4528
I0
sS'pre2date'
p4529
I0
sS'next2title'
p4530
I0
sS'pre3address'
p4531
I0
sS'next1pubnum'
p4532
I0
sS'next2author'
p4533
I0
sS'pre2web'
p4534
I0
sS'next1email'
p4535
I0
sg81
S'degree'
p4536
sS'pre1web'
p4537
I0
sS'pre4email'
p4538
I0
sS'pre1keyword'
p4539
I0
sS'pre4date'
p4540
I0
sS'next1affiliation'
p4541
F0.5
sS'next2degree'
p4542
I0
sS'pre1phone'
p4543
I0
sg90
g726
sg92
I0
sS'pre2abstract'
p4544
I0
sS'next1intro'
p4545
I0
sS'next2intro'
p4546
I0
sS'pre3degree'
p4547
I0
sS'pre1author'
p4548
F0.5
sS'next3page'
p4549
F0.5
sS'next3web'
p4550
I0
sS'next4date'
p4551
I0
sg101
F0.5
sg102
F0.0
sg103
I0
sS'pre2author'
p4552
I0
sg105
I0
sS'next2page'
p4553
I0
sS'next3pubnum'
p4554
I0
sS'next1degree'
p4555
I0
sS'pre1date'
p4556
I0
sS'pre4phone'
p4557
I0
sg111
I0
sS'next4intro'
p4558
I0
sg113
F0.0
sS'next2affiliation'
p4559
I0
sS'next4author'
p4560
I0
sS'next4note'
p4561
I0
sS'pre1pubnum'
p4562
I0
sg118
I0
sg119
I0
sS'next2address'
p4563
I0
sS'next2keyword'
p4564
I0
sS'next3note'
p4565
I0
sS'next3affiliation'
p4566
I0
sS'pre4degree'
p4567
I0
sS'next4email'
p4568
I0
sg126
F0.3333333333333333
sS'next1web'
p4569
I0
sS'next2email'
p4570
I0
sS'next2web'
p4571
I0
sg130
F0.0
sS'pre3page'
p4572
I0
sS'next3author'
p4573
I0
sS'pre1address'
p4574
I0
sS'pre2email'
p4575
I0
sS'next4web'
p4576
I0
sS'pre4author'
p4577
I0
sS'pre1title'
p4578
I0
sS'next4page'
p4579
I0
sg139
I0
sS'next4keyword'
p4580
I0
sg141
I0
sS'next1phone'
p4581
I0
sS'pre4intro'
p4582
I0
sS'pre3keyword'
p4583
I0
sS'pre2title'
p4584
F0.5
sS'pre3email'
p4585
I0
sS'pre4title'
p4586
I0
sS'next3date'
p4587
I0
sS'next2phone'
p4588
I0
sS'next1date'
p4589
I0
sg151
F0.0
sS'pre1intro'
p4590
I0
sS'pre2page'
p4591
I0
sS'next2abstract'
p4592
I0
sS'next4address'
p4593
I0
sS'next1title'
p4594
I0
sS'pre1page'
p4595
I0
sg158
I0
sg159
F0.6666666666666667
sg160
I0
sa(dp4596
S'pre4pubnum'
p4597
I0
sS'next1page'
p4598
I0
sS'pre2keyword'
p4599
I0
sS'next3address'
p4600
I0
sS'pre3affiliation'
p4601
F0.5
sS'pre1email'
p4602
I0
sS'next3intro'
p4603
I0
sS'pre4page'
p4604
I0
sg10
I7
sg11
F0.6842105263157895
sS'next4phone'
p4605
I0
sg13
S'"<degree> A Thesis Submitted in Partial Fulfillment of the Requirements for the Degree Doctor of Philosophy Approved, Thesis Committee: J Robert Jump, Co-Chairman Professor Electrical and Computer Engineering James B. Sinclair, Co-Chairman Associate Professor Electrical and Computer Engineering John K. Bennett Assistant Professor Electrical and Computer Engineering Ken Kennedy Professor Computer Science Houston, Texas  </degree>::line_number::3"'
p4606
sg15
I0
sg16
I0
sS'next1author'
p4607
I0
sg18
F0.0
sg19
I0
sg20
F0.0
sg21
F0.0
sS'pre3note'
p4608
I0
sS'next3phone'
p4609
I0
sS'pre2note'
p4610
I0
sS'next1address'
p4611
I0
sS'pre1affiliation'
p4612
I0
sS'pre2address'
p4613
I0
sS'pre1abstract'
p4614
I0
sS'next3abstract'
p4615
I0
sS'pre2affiliation'
p4616
I0
sS'pre3title'
p4617
I0
sg32
I0
sS'pre3pubnum'
p4618
I0
sg34
I653
sS'pre3date'
p4619
I0
sS'next4title'
p4620
I0
sS'next3email'
p4621
I0
sg38
I0
sS'next1abstract'
p4622
I0
sS'pre2phone'
p4623
I0
sS'pre4affiliation'
p4624
I0
sS'pre2intro'
p4625
I0
sS'next2date'
p4626
I0
sS'pre3intro'
p4627
I0
sS'next2note'
p4628
I0
sS'next3title'
p4629
I0
sS'next3keyword'
p4630
I0
sS'pre2pubnum'
p4631
I0
sS'next4affiliation'
p4632
I0
sS'next2pubnum'
p4633
I0
sS'pre4note'
p4634
I0
sg52
I0
sg53
F0.0
sS'pre3web'
p4635
I0
sS'next4pubnum'
p4636
I0
sS'next4degree'
p4637
I0
sg57
I0
sS'pre3author'
p4638
I0
sS'pre4web'
p4639
I0
sS'next1note'
p4640
I0
sS'pre3abstract'
p4641
I0
sg62
F0.3157894736842105
sS'pre1degree'
p4642
I0
sS'pre4abstract'
p4643
I0
sS'pre2degree'
p4644
I0
sS'next3degree'
p4645
I0
sS'next4abstract'
p4646
I0
sS'next1keyword'
p4647
I0
sS'pre3phone'
p4648
I0
sS'pre1note'
p4649
I0
sS'pre4keyword'
p4650
I0
sg72
I12
sS'pre4address'
p4651
I0
sS'pre2date'
p4652
I0
sS'next2title'
p4653
I0
sS'pre3address'
p4654
I0
sS'next1pubnum'
p4655
I0
sS'next2author'
p4656
I0
sS'pre2web'
p4657
I0
sS'next1email'
p4658
I0
sg81
S'degree'
p4659
sS'pre1web'
p4660
I0
sS'pre4email'
p4661
I0
sS'pre1keyword'
p4662
I0
sS'pre4date'
p4663
I0
sS'next1affiliation'
p4664
I0
sS'next2degree'
p4665
I0
sS'pre1phone'
p4666
I0
sg90
g602
sg92
I1
sS'pre2abstract'
p4667
I0
sS'next1intro'
p4668
I0
sS'next2intro'
p4669
I0
sS'pre3degree'
p4670
I0
sS'pre1author'
p4671
F0.5
sS'next3page'
p4672
I0
sS'next3web'
p4673
I0
sS'next4date'
p4674
I0
sg101
F0.3157894736842105
sg102
F0.14035087719298245
sg103
I0
sS'pre2author'
p4675
I0
sg105
I0
sS'next2page'
p4676
F0.5
sS'next3pubnum'
p4677
I0
sS'next1degree'
p4678
I0
sS'pre1date'
p4679
I0
sS'pre4phone'
p4680
I0
sg111
I0
sS'next4intro'
p4681
I0
sg113
F0.0
sS'next2affiliation'
p4682
I0
sS'next4author'
p4683
I0
sS'next4note'
p4684
I0
sS'pre1pubnum'
p4685
I0
sg118
I0
sg119
I1
sS'next2address'
p4686
I0
sS'next2keyword'
p4687
I0
sS'next3note'
p4688
I0
sS'next3affiliation'
p4689
I0
sS'pre4degree'
p4690
I0
sS'next4email'
p4691
I0
sg126
F0.8
sS'next1web'
p4692
I0
sS'next2email'
p4693
I0
sS'next2web'
p4694
I0
sg130
F0.0
sS'pre3page'
p4695
I0
sS'next3author'
p4696
I0
sS'pre1address'
p4697
I0
sS'pre2email'
p4698
I0
sS'next4web'
p4699
I0
sS'pre4author'
p4700
I0
sS'pre1title'
p4701
I0
sS'next4page'
p4702
I0
sg139
I4
sS'next4keyword'
p4703
I0
sg141
I0
sS'next1phone'
p4704
I0
sS'pre4intro'
p4705
I0
sS'pre3keyword'
p4706
I0
sS'pre2title'
p4707
F0.5
sS'pre3email'
p4708
I0
sS'pre4title'
p4709
I0
sS'next3date'
p4710
I0
sS'next2phone'
p4711
I0
sS'next1date'
p4712
F0.5
sg151
F0.0
sS'pre1intro'
p4713
I0
sS'pre2page'
p4714
I0
sS'next2abstract'
p4715
I0
sS'next4address'
p4716
I0
sS'next1title'
p4717
I0
sS'pre1page'
p4718
I0
sg158
I8
sg159
F0.19999999999999996
sg160
I0
sa(dp4719
S'pre4pubnum'
p4720
I0
sS'next1page'
p4721
I0
sS'pre2keyword'
p4722
I0
sS'next3address'
p4723
I0
sS'pre3affiliation'
p4724
I0
sS'pre1email'
p4725
I0
sS'next3intro'
p4726
I0
sS'pre4page'
p4727
I0
sg10
I0
sg11
F0.625
sS'next4phone'
p4728
I0
sg13
S'"<degree> A Thesis Submitted to the Graduate Faculty of </degree>::line_number::2"'
p4729
sg15
I0
sg16
I0
sS'next1author'
p4730
I0
sg18
F0.0
sg19
I0
sg20
F0.0
sg21
F0.0
sS'pre3note'
p4731
I0
sS'next3phone'
p4732
I0
sS'pre2note'
p4733
I0
sS'next1address'
p4734
I0
sS'pre1affiliation'
p4735
I0
sS'pre2address'
p4736
I0
sS'pre1abstract'
p4737
I0
sS'next3abstract'
p4738
I0
sS'pre2affiliation'
p4739
I0
sS'pre3title'
p4740
I0
sg32
I0
sS'pre3pubnum'
p4741
I0
sg34
I655
sS'pre3date'
p4742
I0
sS'next4title'
p4743
I0
sS'next3email'
p4744
I0
sg38
I0
sS'next1abstract'
p4745
I0
sS'pre2phone'
p4746
I0
sS'pre4affiliation'
p4747
I0
sS'pre2intro'
p4748
I0
sS'next2date'
p4749
I0
sS'pre3intro'
p4750
I0
sS'next2note'
p4751
I0
sS'next3title'
p4752
I0
sS'next3keyword'
p4753
I0
sS'pre2pubnum'
p4754
I0
sS'next4affiliation'
p4755
I0
sS'next2pubnum'
p4756
I0
sS'pre4note'
p4757
I0
sg52
I0
sg53
F0.0
sS'pre3web'
p4758
I0
sS'next4pubnum'
p4759
I0
sS'next4degree'
p4760
I0
sg57
I0
sS'pre3author'
p4761
I0
sS'pre4web'
p4762
I0
sS'next1note'
p4763
I0
sS'pre3abstract'
p4764
I0
sg62
F0.375
sS'pre1degree'
p4765
I0
sS'pre4abstract'
p4766
I0
sS'pre2degree'
p4767
I0
sS'next3degree'
p4768
I0
sS'next4abstract'
p4769
I0
sS'next1keyword'
p4770
I0
sS'pre3phone'
p4771
I0
sS'pre1note'
p4772
I0
sS'pre4keyword'
p4773
I0
sg72
I2
sS'pre4address'
p4774
I0
sS'pre2date'
p4775
I0
sS'next2title'
p4776
I0
sS'pre3address'
p4777
I0
sS'next1pubnum'
p4778
I0
sS'next2author'
p4779
I0
sS'pre2web'
p4780
I0
sS'next1email'
p4781
I0
sg81
S'degree'
p4782
sS'pre1web'
p4783
I0
sS'pre4email'
p4784
I0
sS'pre1keyword'
p4785
I0
sS'pre4date'
p4786
I0
sS'next1affiliation'
p4787
F0.5
sS'next2degree'
p4788
F0.5
sS'pre1phone'
p4789
I0
sg90
g726
sg92
I0
sS'pre2abstract'
p4790
I0
sS'next1intro'
p4791
I0
sS'next2intro'
p4792
I0
sS'pre3degree'
p4793
I0
sS'pre1author'
p4794
F0.5
sS'next3page'
p4795
I0
sS'next3web'
p4796
I0
sS'next4date'
p4797
I0
sg101
F0.375
sg102
F0.0
sg103
I0
sS'pre2author'
p4798
I0
sg105
I0
sS'next2page'
p4799
I0
sS'next3pubnum'
p4800
I0
sS'next1degree'
p4801
I0
sS'pre1date'
p4802
I0
sS'pre4phone'
p4803
I0
sg111
I0
sS'next4intro'
p4804
I0
sg113
F0.0
sS'next2affiliation'
p4805
I0
sS'next4author'
p4806
I0
sS'next4note'
p4807
I0
sS'pre1pubnum'
p4808
I0
sg118
I0
sg119
I0
sS'next2address'
p4809
I0
sS'next2keyword'
p4810
I0
sS'next3note'
p4811
I0
sS'next3affiliation'
p4812
F0.5
sS'pre4degree'
p4813
I0
sS'next4email'
p4814
I0
sg126
F0.6666666666666666
sS'next1web'
p4815
I0
sS'next2email'
p4816
I0
sS'next2web'
p4817
I0
sg130
F0.0
sS'pre3page'
p4818
I0
sS'next3author'
p4819
I0
sS'pre1address'
p4820
I0
sS'pre2email'
p4821
I0
sS'next4web'
p4822
I0
sS'pre4author'
p4823
I0
sS'pre1title'
p4824
I0
sS'next4page'
p4825
I0
sg139
I1
sS'next4keyword'
p4826
I0
sg141
I0
sS'next1phone'
p4827
I0
sS'pre4intro'
p4828
I0
sS'pre3keyword'
p4829
I0
sS'pre2title'
p4830
F0.5
sS'pre3email'
p4831
I0
sS'pre4title'
p4832
I0
sS'next3date'
p4833
I0
sS'next2phone'
p4834
I0
sS'next1date'
p4835
I0
sg151
F0.0
sS'pre1intro'
p4836
I0
sS'pre2page'
p4837
I0
sS'next2abstract'
p4838
I0
sS'next4address'
p4839
F0.5
sS'next1title'
p4840
I0
sS'pre1page'
p4841
I0
sg158
I0
sg159
F0.33333333333333337
sg160
I0
sa(dp4842
S'pre4pubnum'
p4843
I0
sS'next1page'
p4844
I0
sS'pre2keyword'
p4845
I0
sS'next3address'
p4846
I0
sS'pre3affiliation'
p4847
I0
sS'pre1email'
p4848
I0
sS'next3intro'
p4849
I0
sS'pre4page'
p4850
I0
sg10
I1
sg11
F0.6
sS'next4phone'
p4851
I0
sg13
S'"<degree> in Partial Fulfillment of the Requirements for the Degree of Master of Science Approved: Dr. Michael J. Wozny Thesis Adviser  </degree>::line_number::4"'
p4852
sg15
I0
sg16
I0
sS'next1author'
p4853
I0
sg18
F0.0
sg19
I0
sg20
F0.0
sg21
F0.0
sS'pre3note'
p4854
I0
sS'next3phone'
p4855
I0
sS'pre2note'
p4856
I0
sS'next1address'
p4857
I0
sS'pre1affiliation'
p4858
F0.5
sS'pre2address'
p4859
I0
sS'pre1abstract'
p4860
I0
sS'next3abstract'
p4861
I0
sS'pre2affiliation'
p4862
I0
sS'pre3title'
p4863
I0
sg32
I0
sS'pre3pubnum'
p4864
I0
sg34
I655
sS'pre3date'
p4865
I0
sS'next4title'
p4866
I0
sS'next3email'
p4867
I0
sg38
I0
sS'next1abstract'
p4868
I0
sS'pre2phone'
p4869
I0
sS'pre4affiliation'
p4870
I0
sS'pre2intro'
p4871
I0
sS'next2date'
p4872
I0
sS'pre3intro'
p4873
I0
sS'next2note'
p4874
I0
sS'next3title'
p4875
I0
sS'next3keyword'
p4876
I0
sS'pre2pubnum'
p4877
I0
sS'next4affiliation'
p4878
I0
sS'next2pubnum'
p4879
I0
sS'pre4note'
p4880
I0
sg52
I0
sg53
F0.0
sS'pre3web'
p4881
I0
sS'next4pubnum'
p4882
I0
sS'next4degree'
p4883
I0
sg57
I0
sS'pre3author'
p4884
F0.5
sS'pre4web'
p4885
I0
sS'next1note'
p4886
I0
sS'pre3abstract'
p4887
I0
sg62
F0.3
sS'pre1degree'
p4888
I0
sS'pre4abstract'
p4889
I0
sS'pre2degree'
p4890
F0.5
sS'next3degree'
p4891
I0
sS'next4abstract'
p4892
I0
sS'next1keyword'
p4893
I0
sS'pre3phone'
p4894
I0
sS'pre1note'
p4895
I0
sS'pre4keyword'
p4896
I0
sg72
I4
sS'pre4address'
p4897
I0
sS'pre2date'
p4898
I0
sS'next2title'
p4899
I0
sS'pre3address'
p4900
I0
sS'next1pubnum'
p4901
I0
sS'next2author'
p4902
I0
sS'pre2web'
p4903
I0
sS'next1email'
p4904
I0
sg81
S'degree'
p4905
sS'pre1web'
p4906
I0
sS'pre4email'
p4907
I0
sS'pre1keyword'
p4908
I0
sS'pre4date'
p4909
I0
sS'next1affiliation'
p4910
F0.5
sS'next2degree'
p4911
I0
sS'pre1phone'
p4912
I0
sg90
g91
sg92
I0
sS'pre2abstract'
p4913
I0
sS'next1intro'
p4914
I0
sS'next2intro'
p4915
I0
sS'pre3degree'
p4916
I0
sS'pre1author'
p4917
I0
sS'next3page'
p4918
I0
sS'next3web'
p4919
I0
sS'next4date'
p4920
I0
sg101
F0.4
sg102
F0.05
sg103
I0
sS'pre2author'
p4921
I0
sg105
I0
sS'next2page'
p4922
I0
sS'next3pubnum'
p4923
I0
sS'next1degree'
p4924
I0
sS'pre1date'
p4925
I0
sS'pre4phone'
p4926
I0
sg111
I0
sS'next4intro'
p4927
I0
sg113
F0.0
sS'next2affiliation'
p4928
I0
sS'next4author'
p4929
I0
sS'next4note'
p4930
I0
sS'pre1pubnum'
p4931
I0
sg118
I0
sg119
I0
sS'next2address'
p4932
F0.5
sS'next2keyword'
p4933
I0
sS'next3note'
p4934
I0
sS'next3affiliation'
p4935
I0
sS'pre4degree'
p4936
I0
sS'next4email'
p4937
I0
sg126
F0.5714285714285714
sS'next1web'
p4938
I0
sS'next2email'
p4939
I0
sS'next2web'
p4940
I0
sg130
F0.0
sS'pre3page'
p4941
I0
sS'next3author'
p4942
I0
sS'pre1address'
p4943
I0
sS'pre2email'
p4944
I0
sS'next4web'
p4945
I0
sS'pre4author'
p4946
I0
sS'pre1title'
p4947
I0
sS'next4page'
p4948
F0.5
sg139
I1
sS'next4keyword'
p4949
I0
sg141
I0
sS'next1phone'
p4950
I0
sS'pre4intro'
p4951
I0
sS'pre3keyword'
p4952
I0
sS'pre2title'
p4953
I0
sS'pre3email'
p4954
I0
sS'pre4title'
p4955
F0.5
sS'next3date'
p4956
F0.5
sS'next2phone'
p4957
I0
sS'next1date'
p4958
I0
sg151
F0.0
sS'pre1intro'
p4959
I0
sS'pre2page'
p4960
I0
sS'next2abstract'
p4961
I0
sS'next4address'
p4962
I0
sS'next1title'
p4963
I0
sS'pre1page'
p4964
I0
sg158
I1
sg159
F0.4285714285714286
sg160
I0
sa(dp4965
S'pre4pubnum'
p4966
I0
sS'next1page'
p4967
I0
sS'pre2keyword'
p4968
I0
sS'next3address'
p4969
I0
sS'pre3affiliation'
p4970
I0
sS'pre1email'
p4971
I0
sS'next3intro'
p4972
I0
sS'pre4page'
p4973
I0
sg10
I0
sg11
F0.7368421052631579
sS'next4phone'
p4974
I0
sg13
S'"<degree> A thesis submitted in partial satisfaction of the requirements for the degree of Master of Science in Computer Science  </degree>::line_number::2"'
p4975
sg15
I0
sg16
I0
sS'next1author'
p4976
F0.5
sg18
F0.0
sg19
I0
sg20
F0.0
sg21
F0.0
sS'pre3note'
p4977
I0
sS'next3phone'
p4978
I0
sS'pre2note'
p4979
I0
sS'next1address'
p4980
I0
sS'pre1affiliation'
p4981
I0
sS'pre2address'
p4982
I0
sS'pre1abstract'
p4983
I0
sS'next3abstract'
p4984
I0
sS'pre2affiliation'
p4985
F0.5
sS'pre3title'
p4986
I0
sg32
I0
sS'pre3pubnum'
p4987
I0
sg34
I685
sS'pre3date'
p4988
I0
sS'next4title'
p4989
I0
sS'next3email'
p4990
I0
sg38
I0
sS'next1abstract'
p4991
I0
sS'pre2phone'
p4992
I0
sS'pre4affiliation'
p4993
I0
sS'pre2intro'
p4994
I0
sS'next2date'
p4995
I0
sS'pre3intro'
p4996
I0
sS'next2note'
p4997
I0
sS'next3title'
p4998
I0
sS'next3keyword'
p4999
I0
sS'pre2pubnum'
p5000
I0
sS'next4affiliation'
p5001
I0
sS'next2pubnum'
p5002
I0
sS'pre4note'
p5003
I0
sg52
I0
sg53
F0.0
sS'pre3web'
p5004
I0
sS'next4pubnum'
p5005
I0
sS'next4degree'
p5006
I0
sg57
I0
sS'pre3author'
p5007
I0
sS'pre4web'
p5008
I0
sS'next1note'
p5009
I0
sS'pre3abstract'
p5010
I0
sg62
F0.3684210526315789
sS'pre1degree'
p5011
I0
sS'pre4abstract'
p5012
I0
sS'pre2degree'
p5013
I0
sS'next3degree'
p5014
I0
sS'next4abstract'
p5015
I0
sS'next1keyword'
p5016
I0
sS'pre3phone'
p5017
I0
sS'pre1note'
p5018
I0
sS'pre4keyword'
p5019
I0
sg72
I6
sS'pre4address'
p5020
I0
sS'pre2date'
p5021
I0
sS'next2title'
p5022
I0
sS'pre3address'
p5023
I0
sS'next1pubnum'
p5024
I0
sS'next2author'
p5025
I0
sS'pre2web'
p5026
I0
sS'next1email'
p5027
I0
sg81
S'degree'
p5028
sS'pre1web'
p5029
I0
sS'pre4email'
p5030
I0
sS'pre1keyword'
p5031
I0
sS'pre4date'
p5032
I0
sS'next1affiliation'
p5033
I0
sS'next2degree'
p5034
F0.5
sS'pre1phone'
p5035
I0
sg90
g726
sg92
I0
sS'pre2abstract'
p5036
I0
sS'next1intro'
p5037
I0
sS'next2intro'
p5038
I0
sS'pre3degree'
p5039
I0
sS'pre1author'
p5040
I0
sS'next3page'
p5041
I0
sS'next3web'
p5042
I0
sS'next4date'
p5043
I0
sg101
F0.26315789473684215
sg102
F0.15789473684210525
sg103
I0
sS'pre2author'
p5044
I0
sg105
I0
sS'next2page'
p5045
I0
sS'next3pubnum'
p5046
I0
sS'next1degree'
p5047
I0
sS'pre1date'
p5048
I0
sS'pre4phone'
p5049
I0
sg111
I0
sS'next4intro'
p5050
I0
sg113
F0.0
sS'next2affiliation'
p5051
I0
sS'next4author'
p5052
I0
sS'next4note'
p5053
I0
sS'pre1pubnum'
p5054
I0
sg118
I0
sg119
I0
sS'next2address'
p5055
I0
sS'next2keyword'
p5056
I0
sS'next3note'
p5057
I0
sS'next3affiliation'
p5058
I0
sS'pre4degree'
p5059
I0
sS'next4email'
p5060
I0
sg126
F0.8333333333333334
sS'next1web'
p5061
I0
sS'next2email'
p5062
I0
sS'next2web'
p5063
I0
sg130
F0.0
sS'pre3page'
p5064
I0
sS'next3author'
p5065
I0
sS'pre1address'
p5066
I0
sS'pre2email'
p5067
I0
sS'next4web'
p5068
I0
sS'pre4author'
p5069
I0
sS'pre1title'
p5070
F0.5
sS'next4page'
p5071
F0.5
sg139
I1
sS'next4keyword'
p5072
I0
sg141
I0
sS'next1phone'
p5073
I0
sS'pre4intro'
p5074
I0
sS'pre3keyword'
p5075
I0
sS'pre2title'
p5076
I0
sS'pre3email'
p5077
I0
sS'pre4title'
p5078
I0
sS'next3date'
p5079
F0.5
sS'next2phone'
p5080
I0
sS'next1date'
p5081
I0
sg151
F0.0
sS'pre1intro'
p5082
I0
sS'pre2page'
p5083
I0
sS'next2abstract'
p5084
I0
sS'next4address'
p5085
I0
sS'next1title'
p5086
I0
sS'pre1page'
p5087
I0
sg158
I3
sg159
F0.16666666666666663
sg160
I0
sa.