(lp0
(dp1
S'pre4pubnum'
p2
I0
sS'next1page'
p3
I0
sS'pre2keyword'
p4
I0
sS'next3address'
p5
I0
sS'pre3affiliation'
p6
F0.5
sS'pre1email'
p7
F0.5
sS'next3intro'
p8
I0
sS'pre4page'
p9
I0
sS'isMayName'
p10
I0
sS'dictWordNumPer'
p11
F0.3333333333333333
sS'next4phone'
p12
I0
sS'z_origin'
p13
S'"<web> http://www.cs.bham.ac.uk/~wbl, ~rmp  </web>::line_number::6"'
p14
sS'isPostCode'
p15
I0
sS'isIntro'
p16
I0
sS'next1author'
p17
I0
sS'singleDigitNumPer'
p18
F0.0
sS'isKeyWord'
p19
I0
sS'dateNumPer'
p20
F0.0
sS'pubNumPer'
p21
F0.0
sS'pre3note'
p22
I0
sS'next3phone'
p23
I0
sS'pre2note'
p24
I0
sS'next1address'
p25
I0
sS'pre1affiliation'
p26
I0
sS'pre2address'
p27
F0.5
sS'pre1abstract'
p28
I0
sS'next3abstract'
p29
I0
sS'pre2affiliation'
p30
I0
sS'pre3title'
p31
I0
sS'isPhone'
p32
I0
sS'pre3pubnum'
p33
I0
sS'z_pageNo'
p34
I61
sS'pre3date'
p35
I0
sS'next4title'
p36
I0
sS'next3email'
p37
I0
sS'isEmail'
p38
I0
sS'next1abstract'
p39
I0
sS'pre2phone'
p40
I0
sS'pre4affiliation'
p41
I0
sS'pre2intro'
p42
I0
sS'next2date'
p43
I0
sS'pre3intro'
p44
I0
sS'next2note'
p45
I0
sS'next3title'
p46
I0
sS'next3keyword'
p47
I0
sS'pre2pubnum'
p48
I0
sS'next4affiliation'
p49
I0
sS'next2pubnum'
p50
F0.5
sS'pre4note'
p51
I0
sS'isPubNum'
p52
I0
sS'digitNumPer'
p53
F0.0
sS'pre3web'
p54
I0
sS'next4pubnum'
p55
I0
sS'next4degree'
p56
I0
sS'isPage'
p57
I0
sS'pre3author'
p58
I0
sS'pre4web'
p59
I0
sS'next1note'
p60
I0
sS'pre3abstract'
p61
I0
sS'degreeNumPer'
p62
F0.0
sS'pre1degree'
p63
I0
sS'pre4abstract'
p64
I0
sS'pre2degree'
p65
I0
sS'next3degree'
p66
I0
sS'next4abstract'
p67
F0.5
sS'next1keyword'
p68
I0
sS'pre3phone'
p69
I0
sS'pre1note'
p70
I0
sS'pre4keyword'
p71
I0
sS'isPrep'
p72
I0
sS'pre4address'
p73
I0
sS'pre2date'
p74
I0
sS'next2title'
p75
I0
sS'pre3address'
p76
I0
sS'next1pubnum'
p77
I0
sS'next2author'
p78
I0
sS'pre2web'
p79
I0
sS'next1email'
p80
I0
sS'classification'
p81
S'web'
p82
sS'pre1web'
p83
I0
sS'pre4email'
p84
I0
sS'pre1keyword'
p85
I0
sS'pre4date'
p86
I0
sS'next1affiliation'
p87
I0
sS'next2degree'
p88
I0
sS'pre1phone'
p89
I0
sS'linePos'
p90
S'6'
p91
sS'isState'
p92
I0
sS'pre2abstract'
p93
I0
sS'next1intro'
p94
I0
sS'next2intro'
p95
I0
sS'pre3degree'
p96
I0
sS'pre1author'
p97
I0
sS'next3page'
p98
I0
sS'next3web'
p99
I0
sS'next4date'
p100
I0
sS'nonDictWordNumPer'
p101
F0.6666666666666667
sS'noteNumPer'
p102
F0.0
sS'isAddr'
p103
I0
sS'pre2author'
p104
I0
sS'isURL'
p105
I1
sS'next2page'
p106
I0
sS'next3pubnum'
p107
I0
sS'next1degree'
p108
I0
sS'pre1date'
p109
I0
sS'pre4phone'
p110
I0
sS'isMonth'
p111
I0
sS'next4intro'
p112
I0
sS'affiNumPer'
p113
F0.0
sS'next2affiliation'
p114
I0
sS'next4author'
p115
I0
sS'next4note'
p116
I0
sS'pre1pubnum'
p117
I0
sS'isAbstract'
p118
I0
sS'isCity'
p119
I0
sS'next2address'
p120
I0
sS'next2keyword'
p121
I0
sS'next3note'
p122
I0
sS'next3affiliation'
p123
I0
sS'pre4degree'
p124
I0
sS'next4email'
p125
I0
sS'cap1DicWordNumPer'
p126
F0.0
sS'next1web'
p127
I0
sS'next2email'
p128
I0
sS'next2web'
p129
I0
sS'addrNumPer'
p130
F0.0
sS'pre3page'
p131
I0
sS'next3author'
p132
I0
sS'pre1address'
p133
I0
sS'pre2email'
p134
I0
sS'next4web'
p135
I0
sS'pre4author'
p136
F0.5
sS'pre1title'
p137
I0
sS'next4page'
p138
I0
sS'isSingleCap'
p139
I0
sS'next4keyword'
p140
I0
sS'isAffi'
p141
I0
sS'next1phone'
p142
F0.5
sS'pre4intro'
p143
I0
sS'pre3keyword'
p144
I0
sS'pre2title'
p145
I0
sS'pre3email'
p146
I0
sS'pre4title'
p147
I0
sS'next3date'
p148
F0.5
sS'next2phone'
p149
I0
sS'next1date'
p150
I0
sS'phoneNumPer'
p151
F0.0
sS'pre1intro'
p152
I0
sS'pre2page'
p153
I0
sS'next2abstract'
p154
I0
sS'next4address'
p155
I0
sS'next1title'
p156
I0
sS'pre1page'
p157
I0
sS'isNote'
p158
I0
sS'cap1NonDicWordNumPer'
p159
F1.0
sS'isCountry'
p160
I0
sa(dp161
S'pre4pubnum'
p162
I0
sS'next1page'
p163
I0
sS'pre2keyword'
p164
I0
sS'next3address'
p165
I0
sS'pre3affiliation'
p166
F0.5
sS'pre1email'
p167
F0.5
sS'next3intro'
p168
I0
sS'pre4page'
p169
I0
sg10
I0
sg11
F0.3333333333333333
sS'next4phone'
p170
I0
sg13
S'"<web> http://www.cs.bham.ac.uk/~wbl, ~rmp  </web>::line_number::5"'
p171
sg15
I0
sg16
I0
sS'next1author'
p172
I0
sg18
F0.0
sg19
I0
sg20
F0.0
sg21
F0.0
sS'pre3note'
p173
I0
sS'next3phone'
p174
I0
sS'pre2note'
p175
I0
sS'next1address'
p176
I0
sS'pre1affiliation'
p177
I0
sS'pre2address'
p178
F0.5
sS'pre1abstract'
p179
I0
sS'next3abstract'
p180
I0
sS'pre2affiliation'
p181
I0
sS'pre3title'
p182
I0
sg32
I0
sS'pre3pubnum'
p183
I0
sg34
I62
sS'pre3date'
p184
I0
sS'next4title'
p185
I0
sS'next3email'
p186
I0
sg38
I0
sS'next1abstract'
p187
I0
sS'pre2phone'
p188
I0
sS'pre4affiliation'
p189
I0
sS'pre2intro'
p190
I0
sS'next2date'
p191
I0
sS'pre3intro'
p192
I0
sS'next2note'
p193
I0
sS'next3title'
p194
I0
sS'next3keyword'
p195
I0
sS'pre2pubnum'
p196
I0
sS'next4affiliation'
p197
I0
sS'next2pubnum'
p198
F0.5
sS'pre4note'
p199
I0
sg52
I0
sg53
F0.0
sS'pre3web'
p200
I0
sS'next4pubnum'
p201
I0
sS'next4degree'
p202
I0
sg57
I0
sS'pre3author'
p203
I0
sS'pre4web'
p204
I0
sS'next1note'
p205
I0
sS'pre3abstract'
p206
I0
sg62
F0.0
sS'pre1degree'
p207
I0
sS'pre4abstract'
p208
I0
sS'pre2degree'
p209
I0
sS'next3degree'
p210
I0
sS'next4abstract'
p211
F0.5
sS'next1keyword'
p212
I0
sS'pre3phone'
p213
I0
sS'pre1note'
p214
I0
sS'pre4keyword'
p215
I0
sg72
I0
sS'pre4address'
p216
I0
sS'pre2date'
p217
I0
sS'next2title'
p218
I0
sS'pre3address'
p219
I0
sS'next1pubnum'
p220
I0
sS'next2author'
p221
I0
sS'pre2web'
p222
I0
sS'next1email'
p223
I0
sg81
S'web'
p224
sS'pre1web'
p225
I0
sS'pre4email'
p226
I0
sS'pre1keyword'
p227
I0
sS'pre4date'
p228
I0
sS'next1affiliation'
p229
I0
sS'next2degree'
p230
I0
sS'pre1phone'
p231
I0
sg90
S'5'
p232
sg92
I0
sS'pre2abstract'
p233
I0
sS'next1intro'
p234
I0
sS'next2intro'
p235
I0
sS'pre3degree'
p236
I0
sS'pre1author'
p237
I0
sS'next3page'
p238
I0
sS'next3web'
p239
I0
sS'next4date'
p240
I0
sg101
F0.6666666666666667
sg102
F0.0
sg103
I0
sS'pre2author'
p241
I0
sg105
I1
sS'next2page'
p242
I0
sS'next3pubnum'
p243
I0
sS'next1degree'
p244
I0
sS'pre1date'
p245
I0
sS'pre4phone'
p246
I0
sg111
I0
sS'next4intro'
p247
I0
sg113
F0.0
sS'next2affiliation'
p248
I0
sS'next4author'
p249
I0
sS'next4note'
p250
I0
sS'pre1pubnum'
p251
I0
sg118
I0
sg119
I0
sS'next2address'
p252
I0
sS'next2keyword'
p253
I0
sS'next3note'
p254
I0
sS'next3affiliation'
p255
I0
sS'pre4degree'
p256
I0
sS'next4email'
p257
I0
sg126
F0.0
sS'next1web'
p258
I0
sS'next2email'
p259
I0
sS'next2web'
p260
I0
sg130
F0.0
sS'pre3page'
p261
I0
sS'next3author'
p262
I0
sS'pre1address'
p263
I0
sS'pre2email'
p264
I0
sS'next4web'
p265
I0
sS'pre4author'
p266
F0.5
sS'pre1title'
p267
I0
sS'next4page'
p268
I0
sg139
I0
sS'next4keyword'
p269
I0
sg141
I0
sS'next1phone'
p270
F0.5
sS'pre4intro'
p271
I0
sS'pre3keyword'
p272
I0
sS'pre2title'
p273
I0
sS'pre3email'
p274
I0
sS'pre4title'
p275
I0
sS'next3date'
p276
F0.5
sS'next2phone'
p277
I0
sS'next1date'
p278
I0
sg151
F0.0
sS'pre1intro'
p279
I0
sS'pre2page'
p280
I0
sS'next2abstract'
p281
I0
sS'next4address'
p282
I0
sS'next1title'
p283
I0
sS'pre1page'
p284
I0
sg158
I0
sg159
F1.0
sg160
I0
sa(dp285
S'pre4pubnum'
p286
I0
sS'next1page'
p287
I0
sS'pre2keyword'
p288
I0
sS'next3address'
p289
I0
sS'pre3affiliation'
p290
F0.5
sS'pre1email'
p291
F0.5
sS'next3intro'
p292
I0
sS'pre4page'
p293
I0
sg10
I0
sg11
F0.5
sS'next4phone'
p294
I0
sg13
S'"<web> http://www.cs.dartmouth.edu/ brd/. </web>::line_number::17"'
p295
sg15
I0
sg16
I0
sS'next1author'
p296
I0
sg18
F0.0
sg19
I0
sg20
F0.0
sg21
F0.0
sS'pre3note'
p297
I0
sS'next3phone'
p298
I0
sS'pre2note'
p299
I0
sS'next1address'
p300
I0
sS'pre1affiliation'
p301
I0
sS'pre2address'
p302
F0.5
sS'pre1abstract'
p303
I0
sS'next3abstract'
p304
I0
sS'pre2affiliation'
p305
I0
sS'pre3title'
p306
I0
sg32
I0
sS'pre3pubnum'
p307
I0
sg34
I79
sS'pre3date'
p308
I0
sS'next4title'
p309
I0
sS'next3email'
p310
F0.5
sg38
I0
sS'next1abstract'
p311
I0
sS'pre2phone'
p312
I0
sS'pre4affiliation'
p313
I0
sS'pre2intro'
p314
I0
sS'next2date'
p315
I0
sS'pre3intro'
p316
I0
sS'next2note'
p317
I0
sS'next3title'
p318
I0
sS'next3keyword'
p319
I0
sS'pre2pubnum'
p320
I0
sS'next4affiliation'
p321
I0
sS'next2pubnum'
p322
I0
sS'pre4note'
p323
I0
sg52
I0
sg53
F0.0
sS'pre3web'
p324
I0
sS'next4pubnum'
p325
I0
sS'next4degree'
p326
I0
sg57
I0
sS'pre3author'
p327
I0
sS'pre4web'
p328
I0
sS'next1note'
p329
I0
sS'pre3abstract'
p330
I0
sg62
F0.0
sS'pre1degree'
p331
I0
sS'pre4abstract'
p332
I0
sS'pre2degree'
p333
I0
sS'next3degree'
p334
I0
sS'next4abstract'
p335
I0
sS'next1keyword'
p336
I0
sS'pre3phone'
p337
I0
sS'pre1note'
p338
I0
sS'pre4keyword'
p339
I0
sg72
I0
sS'pre4address'
p340
I0
sS'pre2date'
p341
I0
sS'next2title'
p342
I0
sS'pre3address'
p343
I0
sS'next1pubnum'
p344
I0
sS'next2author'
p345
I0
sS'pre2web'
p346
I0
sS'next1email'
p347
I0
sg81
S'web'
p348
sS'pre1web'
p349
I0
sS'pre4email'
p350
F0.5
sS'pre1keyword'
p351
I0
sS'pre4date'
p352
I0
sS'next1affiliation'
p353
F0.5
sS'next2degree'
p354
I0
sS'pre1phone'
p355
I0
sg90
S'17'
p356
sg92
I0
sS'pre2abstract'
p357
I0
sS'next1intro'
p358
I0
sS'next2intro'
p359
I0
sS'pre3degree'
p360
I0
sS'pre1author'
p361
I0
sS'next3page'
p362
I0
sS'next3web'
p363
I0
sS'next4date'
p364
I0
sg101
F0.5
sg102
F0.0
sg103
I0
sS'pre2author'
p365
I0
sg105
I1
sS'next2page'
p366
I0
sS'next3pubnum'
p367
I0
sS'next1degree'
p368
I0
sS'pre1date'
p369
I0
sS'pre4phone'
p370
I0
sg111
I0
sS'next4intro'
p371
I0
sg113
F0.0
sS'next2affiliation'
p372
I0
sS'next4author'
p373
I0
sS'next4note'
p374
F0.5
sS'pre1pubnum'
p375
I0
sg118
I0
sg119
I0
sS'next2address'
p376
F0.5
sS'next2keyword'
p377
I0
sS'next3note'
p378
I0
sS'next3affiliation'
p379
I0
sS'pre4degree'
p380
I0
sS'next4email'
p381
I0
sg126
F0.0
sS'next1web'
p382
I0
sS'next2email'
p383
I0
sS'next2web'
p384
I0
sg130
F0.0
sS'pre3page'
p385
I0
sS'next3author'
p386
I0
sS'pre1address'
p387
I0
sS'pre2email'
p388
I0
sS'next4web'
p389
I0
sS'pre4author'
p390
I0
sS'pre1title'
p391
I0
sS'next4page'
p392
I0
sg139
I0
sS'next4keyword'
p393
I0
sg141
I0
sS'next1phone'
p394
I0
sS'pre4intro'
p395
I0
sS'pre3keyword'
p396
I0
sS'pre2title'
p397
I0
sS'pre3email'
p398
I0
sS'pre4title'
p399
I0
sS'next3date'
p400
I0
sS'next2phone'
p401
I0
sS'next1date'
p402
I0
sg151
F0.0
sS'pre1intro'
p403
I0
sS'pre2page'
p404
I0
sS'next2abstract'
p405
I0
sS'next4address'
p406
I0
sS'next1title'
p407
I0
sS'pre1page'
p408
I0
sg158
I0
sg159
F1.0
sg160
I0
sa(dp409
S'pre4pubnum'
p410
I0
sS'next1page'
p411
I0
sS'pre2keyword'
p412
I0
sS'next3address'
p413
I0
sS'pre3affiliation'
p414
I0
sS'pre1email'
p415
I0
sS'next3intro'
p416
I0
sS'pre4page'
p417
I0
sg10
I0
sg11
F1.0
sS'next4phone'
p418
I0
sg13
S'"<web> ftp://ftp.cs.dartmouth.edu/kotz/papers/nieuwejaar:jgalley.ps.Z  </web>::line_number::2"'
p419
sg15
I0
sg16
I0
sS'next1author'
p420
I0
sg18
F0.0
sg19
I0
sg20
F0.0
sg21
F0.0
sS'pre3note'
p421
I0
sS'next3phone'
p422
I0
sS'pre2note'
p423
F0.5
sS'next1address'
p424
I0
sS'pre1affiliation'
p425
I0
sS'pre2address'
p426
I0
sS'pre1abstract'
p427
I0
sS'next3abstract'
p428
I0
sS'pre2affiliation'
p429
I0
sS'pre3title'
p430
I0
sg32
I0
sS'pre3pubnum'
p431
I0
sg34
I83
sS'pre3date'
p432
I0
sS'next4title'
p433
I0
sS'next3email'
p434
F0.5
sg38
I0
sS'next1abstract'
p435
I0
sS'pre2phone'
p436
I0
sS'pre4affiliation'
p437
I0
sS'pre2intro'
p438
I0
sS'next2date'
p439
I0
sS'pre3intro'
p440
I0
sS'next2note'
p441
I0
sS'next3title'
p442
I0
sS'next3keyword'
p443
I0
sS'pre2pubnum'
p444
I0
sS'next4affiliation'
p445
F0.5
sS'next2pubnum'
p446
I0
sS'pre4note'
p447
I0
sg52
I0
sg53
F0.0
sS'pre3web'
p448
I0
sS'next4pubnum'
p449
I0
sS'next4degree'
p450
I0
sg57
I0
sS'pre3author'
p451
I0
sS'pre4web'
p452
I0
sS'next1note'
p453
I0
sS'pre3abstract'
p454
I0
sg62
F0.0
sS'pre1degree'
p455
I0
sS'pre4abstract'
p456
I0
sS'pre2degree'
p457
I0
sS'next3degree'
p458
I0
sS'next4abstract'
p459
I0
sS'next1keyword'
p460
I0
sS'pre3phone'
p461
I0
sS'pre1note'
p462
F0.5
sS'pre4keyword'
p463
I0
sg72
I0
sS'pre4address'
p464
I0
sS'pre2date'
p465
I0
sS'next2title'
p466
I0
sS'pre3address'
p467
I0
sS'next1pubnum'
p468
I0
sS'next2author'
p469
F0.5
sS'pre2web'
p470
I0
sS'next1email'
p471
I0
sg81
S'web'
p472
sS'pre1web'
p473
I0
sS'pre4email'
p474
I0
sS'pre1keyword'
p475
I0
sS'pre4date'
p476
I0
sS'next1affiliation'
p477
I0
sS'next2degree'
p478
I0
sS'pre1phone'
p479
I0
sg90
S'2'
p480
sg92
I0
sS'pre2abstract'
p481
I0
sS'next1intro'
p482
I0
sS'next2intro'
p483
I0
sS'pre3degree'
p484
I0
sS'pre1author'
p485
I0
sS'next3page'
p486
I0
sS'next3web'
p487
I0
sS'next4date'
p488
I0
sg101
F0.0
sg102
F0.0
sg103
I0
sS'pre2author'
p489
I0
sg105
I1
sS'next2page'
p490
I0
sS'next3pubnum'
p491
I0
sS'next1degree'
p492
I0
sS'pre1date'
p493
I0
sS'pre4phone'
p494
I0
sg111
I0
sS'next4intro'
p495
I0
sg113
F0.0
sS'next2affiliation'
p496
I0
sS'next4author'
p497
I0
sS'next4note'
p498
I0
sS'pre1pubnum'
p499
I0
sg118
I0
sg119
I0
sS'next2address'
p500
I0
sS'next2keyword'
p501
I0
sS'next3note'
p502
I0
sS'next3affiliation'
p503
I0
sS'pre4degree'
p504
I0
sS'next4email'
p505
I0
sg126
F0.0
sS'next1web'
p506
I0
sS'next2email'
p507
I0
sS'next2web'
p508
I0
sg130
F0.0
sS'pre3page'
p509
I0
sS'next3author'
p510
I0
sS'pre1address'
p511
I0
sS'pre2email'
p512
I0
sS'next4web'
p513
I0
sS'pre4author'
p514
I0
sS'pre1title'
p515
I0
sS'next4page'
p516
I0
sg139
I0
sS'next4keyword'
p517
I0
sg141
I0
sS'next1phone'
p518
I0
sS'pre4intro'
p519
I0
sS'pre3keyword'
p520
I0
sS'pre2title'
p521
I0
sS'pre3email'
p522
I0
sS'pre4title'
p523
I0
sS'next3date'
p524
I0
sS'next2phone'
p525
I0
sS'next1date'
p526
I0
sg151
F0.0
sS'pre1intro'
p527
I0
sS'pre2page'
p528
I0
sS'next2abstract'
p529
I0
sS'next4address'
p530
I0
sS'next1title'
p531
F0.5
sS'pre1page'
p532
I0
sg158
I0
sg159
F1.0
sg160
I0
sa(dp533
S'pre4pubnum'
p534
I0
sS'next1page'
p535
I0
sS'pre2keyword'
p536
I0
sS'next3address'
p537
I0
sS'pre3affiliation'
p538
F0.5
sS'pre1email'
p539
F0.5
sS'next3intro'
p540
I0
sS'pre4page'
p541
I0
sg10
I0
sg11
F0.3333333333333333
sS'next4phone'
p542
I0
sg13
S'"<web> Url: http://www.cs.huji.ac.il/f~idish,~dolevg  </web>::line_number::5"'
p543
sg15
I0
sg16
I0
sS'next1author'
p544
I0
sg18
F0.0
sg19
I0
sg20
F0.0
sg21
F0.0
sS'pre3note'
p545
I0
sS'next3phone'
p546
I0
sS'pre2note'
p547
I0
sS'next1address'
p548
I0
sS'pre1affiliation'
p549
I0
sS'pre2address'
p550
F0.5
sS'pre1abstract'
p551
I0
sS'next3abstract'
p552
I0
sS'pre2affiliation'
p553
I0
sS'pre3title'
p554
I0
sg32
I0
sS'pre3pubnum'
p555
I0
sg34
I84
sS'pre3date'
p556
I0
sS'next4title'
p557
I0
sS'next3email'
p558
I0
sg38
I0
sS'next1abstract'
p559
F0.5
sS'pre2phone'
p560
I0
sS'pre4affiliation'
p561
I0
sS'pre2intro'
p562
I0
sS'next2date'
p563
I0
sS'pre3intro'
p564
I0
sS'next2note'
p565
I0
sS'next3title'
p566
I0
sS'next3keyword'
p567
I0
sS'pre2pubnum'
p568
I0
sS'next4affiliation'
p569
I0
sS'next2pubnum'
p570
I0
sS'pre4note'
p571
I0
sg52
I0
sg53
F0.0
sS'pre3web'
p572
I0
sS'next4pubnum'
p573
I0
sS'next4degree'
p574
I0
sg57
I0
sS'pre3author'
p575
I0
sS'pre4web'
p576
I0
sS'next1note'
p577
I0
sS'pre3abstract'
p578
I0
sg62
F0.0
sS'pre1degree'
p579
I0
sS'pre4abstract'
p580
I0
sS'pre2degree'
p581
I0
sS'next3degree'
p582
I0
sS'next4abstract'
p583
I0
sS'next1keyword'
p584
I0
sS'pre3phone'
p585
I0
sS'pre1note'
p586
I0
sS'pre4keyword'
p587
I0
sg72
I0
sS'pre4address'
p588
I0
sS'pre2date'
p589
I0
sS'next2title'
p590
I0
sS'pre3address'
p591
I0
sS'next1pubnum'
p592
I0
sS'next2author'
p593
I0
sS'pre2web'
p594
I0
sS'next1email'
p595
I0
sg81
S'web'
p596
sS'pre1web'
p597
I0
sS'pre4email'
p598
I0
sS'pre1keyword'
p599
I0
sS'pre4date'
p600
I0
sS'next1affiliation'
p601
I0
sS'next2degree'
p602
I0
sS'pre1phone'
p603
I0
sg90
g232
sg92
I0
sS'pre2abstract'
p604
I0
sS'next1intro'
p605
I0
sS'next2intro'
p606
F0.5
sS'pre3degree'
p607
I0
sS'pre1author'
p608
I0
sS'next3page'
p609
I0
sS'next3web'
p610
I0
sS'next4date'
p611
I0
sg101
F0.6666666666666667
sg102
F0.0
sg103
I0
sS'pre2author'
p612
I0
sg105
I1
sS'next2page'
p613
I0
sS'next3pubnum'
p614
I0
sS'next1degree'
p615
I0
sS'pre1date'
p616
I0
sS'pre4phone'
p617
I0
sg111
I0
sS'next4intro'
p618
I0
sg113
F0.0
sS'next2affiliation'
p619
I0
sS'next4author'
p620
I0
sS'next4note'
p621
I0
sS'pre1pubnum'
p622
I0
sg118
I0
sg119
I0
sS'next2address'
p623
I0
sS'next2keyword'
p624
I0
sS'next3note'
p625
I0
sS'next3affiliation'
p626
I0
sS'pre4degree'
p627
I0
sS'next4email'
p628
I0
sg126
F0.0
sS'next1web'
p629
I0
sS'next2email'
p630
I0
sS'next2web'
p631
I0
sg130
F0.0
sS'pre3page'
p632
I0
sS'next3author'
p633
I0
sS'pre1address'
p634
I0
sS'pre2email'
p635
I0
sS'next4web'
p636
I0
sS'pre4author'
p637
F0.5
sS'pre1title'
p638
I0
sS'next4page'
p639
I0
sg139
I0
sS'next4keyword'
p640
I0
sg141
I0
sS'next1phone'
p641
I0
sS'pre4intro'
p642
I0
sS'pre3keyword'
p643
I0
sS'pre2title'
p644
I0
sS'pre3email'
p645
I0
sS'pre4title'
p646
I0
sS'next3date'
p647
I0
sS'next2phone'
p648
I0
sS'next1date'
p649
I0
sg151
F0.0
sS'pre1intro'
p650
I0
sS'pre2page'
p651
I0
sS'next2abstract'
p652
I0
sS'next4address'
p653
I0
sS'next1title'
p654
I0
sS'pre1page'
p655
I0
sg158
I0
sg159
F1.0
sg160
I0
sa(dp656
S'pre4pubnum'
p657
I0
sS'next1page'
p658
I0
sS'pre2keyword'
p659
I0
sS'next3address'
p660
I0
sS'pre3affiliation'
p661
I0
sS'pre1email'
p662
I0
sS'next3intro'
p663
F0.5
sS'pre4page'
p664
I0
sg10
I0
sg11
F1.0
sS'next4phone'
p665
I0
sg13
S'"<web> http://www.cs.toronto.edu/neuron/  </web>::line_number::5"'
p666
sg15
I0
sg16
I0
sS'next1author'
p667
I0
sg18
F0.0
sg19
I0
sg20
F0.0
sg21
F0.0
sS'pre3note'
p668
I0
sS'next3phone'
p669
I0
sS'pre2note'
p670
I0
sS'next1address'
p671
I0
sS'pre1affiliation'
p672
I0
sS'pre2address'
p673
I0
sS'pre1abstract'
p674
I0
sS'next3abstract'
p675
I0
sS'pre2affiliation'
p676
F0.5
sS'pre3title'
p677
I0
sg32
I0
sS'pre3pubnum'
p678
I0
sg34
I105
sS'pre3date'
p679
I0
sS'next4title'
p680
I0
sS'next3email'
p681
I0
sg38
I0
sS'next1abstract'
p682
I0
sS'pre2phone'
p683
I0
sS'pre4affiliation'
p684
I0
sS'pre2intro'
p685
I0
sS'next2date'
p686
I0
sS'pre3intro'
p687
I0
sS'next2note'
p688
I0
sS'next3title'
p689
I0
sS'next3keyword'
p690
I0
sS'pre2pubnum'
p691
I0
sS'next4affiliation'
p692
I0
sS'next2pubnum'
p693
I0
sS'pre4note'
p694
I0
sg52
I0
sg53
F0.0
sS'pre3web'
p695
I0
sS'next4pubnum'
p696
I0
sS'next4degree'
p697
I0
sg57
I0
sS'pre3author'
p698
F0.5
sS'pre4web'
p699
I0
sS'next1note'
p700
I0
sS'pre3abstract'
p701
I0
sg62
F0.0
sS'pre1degree'
p702
I0
sS'pre4abstract'
p703
I0
sS'pre2degree'
p704
I0
sS'next3degree'
p705
I0
sS'next4abstract'
p706
I0
sS'next1keyword'
p707
I0
sS'pre3phone'
p708
I0
sS'pre1note'
p709
I0
sS'pre4keyword'
p710
I0
sg72
I0
sS'pre4address'
p711
I0
sS'pre2date'
p712
I0
sS'next2title'
p713
I0
sS'pre3address'
p714
I0
sS'next1pubnum'
p715
I0
sS'next2author'
p716
I0
sS'pre2web'
p717
I0
sS'next1email'
p718
F0.5
sg81
S'web'
p719
sS'pre1web'
p720
I0
sS'pre4email'
p721
I0
sS'pre1keyword'
p722
I0
sS'pre4date'
p723
I0
sS'next1affiliation'
p724
I0
sS'next2degree'
p725
I0
sS'pre1phone'
p726
I0
sg90
g232
sg92
I0
sS'pre2abstract'
p727
I0
sS'next1intro'
p728
I0
sS'next2intro'
p729
I0
sS'pre3degree'
p730
I0
sS'pre1author'
p731
I0
sS'next3page'
p732
I0
sS'next3web'
p733
I0
sS'next4date'
p734
I0
sg101
F0.0
sg102
F0.0
sg103
I0
sS'pre2author'
p735
I0
sg105
I1
sS'next2page'
p736
I0
sS'next3pubnum'
p737
I0
sS'next1degree'
p738
I0
sS'pre1date'
p739
I0
sS'pre4phone'
p740
I0
sg111
I0
sS'next4intro'
p741
I0
sg113
F0.0
sS'next2affiliation'
p742
I0
sS'next4author'
p743
I0
sS'next4note'
p744
I0
sS'pre1pubnum'
p745
I0
sg118
I0
sg119
I0
sS'next2address'
p746
I0
sS'next2keyword'
p747
I0
sS'next3note'
p748
I0
sS'next3affiliation'
p749
I0
sS'pre4degree'
p750
I0
sS'next4email'
p751
I0
sg126
F0.0
sS'next1web'
p752
I0
sS'next2email'
p753
I0
sS'next2web'
p754
I0
sg130
F0.0
sS'pre3page'
p755
I0
sS'next3author'
p756
I0
sS'pre1address'
p757
F0.5
sS'pre2email'
p758
I0
sS'next4web'
p759
I0
sS'pre4author'
p760
I0
sS'pre1title'
p761
I0
sS'next4page'
p762
I0
sg139
I0
sS'next4keyword'
p763
I0
sg141
I0
sS'next1phone'
p764
I0
sS'pre4intro'
p765
I0
sS'pre3keyword'
p766
I0
sS'pre2title'
p767
I0
sS'pre3email'
p768
I0
sS'pre4title'
p769
F0.5
sS'next3date'
p770
I0
sS'next2phone'
p771
I0
sS'next1date'
p772
I0
sg151
F0.0
sS'pre1intro'
p773
I0
sS'pre2page'
p774
I0
sS'next2abstract'
p775
F0.5
sS'next4address'
p776
I0
sS'next1title'
p777
I0
sS'pre1page'
p778
I0
sg158
I0
sg159
F1.0
sg160
I0
sa(dp779
S'pre4pubnum'
p780
I0
sS'next1page'
p781
I0
sS'pre2keyword'
p782
I0
sS'next3address'
p783
I0
sS'pre3affiliation'
p784
I0
sS'pre1email'
p785
I0
sS'next3intro'
p786
I0
sS'pre4page'
p787
I0
sg10
I0
sg11
F1.0
sS'next4phone'
p788
I0
sg13
S'"<web> http://www/cs.umd.edu/projects/hcil/ </web>::line_number::6"'
p789
sg15
I0
sg16
I0
sS'next1author'
p790
I0
sg18
F0.0
sg19
I0
sg20
F0.0
sg21
F0.0
sS'pre3note'
p791
I0
sS'next3phone'
p792
I0
sS'pre2note'
p793
I0
sS'next1address'
p794
I0
sS'pre1affiliation'
p795
I0
sS'pre2address'
p796
I0
sS'pre1abstract'
p797
I0
sS'next3abstract'
p798
I0
sS'pre2affiliation'
p799
F0.5
sS'pre3title'
p800
I0
sg32
I0
sS'pre3pubnum'
p801
I0
sg34
I126
sS'pre3date'
p802
I0
sS'next4title'
p803
I0
sS'next3email'
p804
I0
sg38
I0
sS'next1abstract'
p805
I0
sS'pre2phone'
p806
I0
sS'pre4affiliation'
p807
I0
sS'pre2intro'
p808
I0
sS'next2date'
p809
I0
sS'pre3intro'
p810
I0
sS'next2note'
p811
I0
sS'next3title'
p812
I0
sS'next3keyword'
p813
I0
sS'pre2pubnum'
p814
I0
sS'next4affiliation'
p815
I0
sS'next2pubnum'
p816
I0
sS'pre4note'
p817
I0
sg52
I0
sg53
F0.0
sS'pre3web'
p818
I0
sS'next4pubnum'
p819
I0
sS'next4degree'
p820
I0
sg57
I0
sS'pre3author'
p821
F0.5
sS'pre4web'
p822
I0
sS'next1note'
p823
I0
sS'pre3abstract'
p824
I0
sg62
F0.0
sS'pre1degree'
p825
I0
sS'pre4abstract'
p826
I0
sS'pre2degree'
p827
I0
sS'next3degree'
p828
I0
sS'next4abstract'
p829
I0
sS'next1keyword'
p830
I0
sS'pre3phone'
p831
I0
sS'pre1note'
p832
I0
sS'pre4keyword'
p833
I0
sg72
I0
sS'pre4address'
p834
I0
sS'pre2date'
p835
I0
sS'next2title'
p836
I0
sS'pre3address'
p837
I0
sS'next1pubnum'
p838
I0
sS'next2author'
p839
I0
sS'pre2web'
p840
I0
sS'next1email'
p841
F0.5
sg81
S'web'
p842
sS'pre1web'
p843
I0
sS'pre4email'
p844
I0
sS'pre1keyword'
p845
I0
sS'pre4date'
p846
I0
sS'next1affiliation'
p847
I0
sS'next2degree'
p848
I0
sS'pre1phone'
p849
I0
sg90
g91
sg92
I0
sS'pre2abstract'
p850
I0
sS'next1intro'
p851
I0
sS'next2intro'
p852
I0
sS'pre3degree'
p853
I0
sS'pre1author'
p854
I0
sS'next3page'
p855
F0.5
sS'next3web'
p856
I0
sS'next4date'
p857
I0
sg101
F0.0
sg102
F0.0
sg103
I0
sS'pre2author'
p858
I0
sg105
I1
sS'next2page'
p859
I0
sS'next3pubnum'
p860
I0
sS'next1degree'
p861
I0
sS'pre1date'
p862
I0
sS'pre4phone'
p863
I0
sg111
I0
sS'next4intro'
p864
I0
sg113
F0.0
sS'next2affiliation'
p865
I0
sS'next4author'
p866
I0
sS'next4note'
p867
I0
sS'pre1pubnum'
p868
I0
sg118
I0
sg119
I0
sS'next2address'
p869
I0
sS'next2keyword'
p870
I0
sS'next3note'
p871
I0
sS'next3affiliation'
p872
I0
sS'pre4degree'
p873
I0
sS'next4email'
p874
I0
sg126
F0.0
sS'next1web'
p875
I0
sS'next2email'
p876
I0
sS'next2web'
p877
I0
sg130
F0.0
sS'pre3page'
p878
I0
sS'next3author'
p879
I0
sS'pre1address'
p880
F0.5
sS'pre2email'
p881
I0
sS'next4web'
p882
I0
sS'pre4author'
p883
I0
sS'pre1title'
p884
I0
sS'next4page'
p885
I0
sg139
I0
sS'next4keyword'
p886
I0
sg141
I0
sS'next1phone'
p887
I0
sS'pre4intro'
p888
I0
sS'pre3keyword'
p889
I0
sS'pre2title'
p890
I0
sS'pre3email'
p891
I0
sS'pre4title'
p892
F0.5
sS'next3date'
p893
I0
sS'next2phone'
p894
I0
sS'next1date'
p895
I0
sg151
F0.0
sS'pre1intro'
p896
I0
sS'pre2page'
p897
I0
sS'next2abstract'
p898
F0.5
sS'next4address'
p899
I0
sS'next1title'
p900
I0
sS'pre1page'
p901
I0
sg158
I0
sg159
F1.0
sg160
I0
sa(dp902
S'pre4pubnum'
p903
I0
sS'next1page'
p904
I0
sS'pre2keyword'
p905
I0
sS'next3address'
p906
I0
sS'pre3affiliation'
p907
I0
sS'pre1email'
p908
I0
sS'next3intro'
p909
F0.5
sS'pre4page'
p910
I0
sg10
I0
sg11
F0.5
sS'next4phone'
p911
I0
sg13
S'"<web> http://www.cscs.ch/Official/Project CSCS-NEC.html  </web>::line_number::5"'
p912
sg15
I0
sg16
I0
sS'next1author'
p913
I0
sg18
F0.0
sg19
I0
sg20
F0.0
sg21
F0.0
sS'pre3note'
p914
I0
sS'next3phone'
p915
I0
sS'pre2note'
p916
I0
sS'next1address'
p917
I0
sS'pre1affiliation'
p918
I0
sS'pre2address'
p919
I0
sS'pre1abstract'
p920
I0
sS'next3abstract'
p921
I0
sS'pre2affiliation'
p922
F0.5
sS'pre3title'
p923
I0
sg32
I0
sS'pre3pubnum'
p924
I0
sg34
I171
sS'pre3date'
p925
I0
sS'next4title'
p926
I0
sS'next3email'
p927
I0
sg38
I0
sS'next1abstract'
p928
F0.5
sS'pre2phone'
p929
I0
sS'pre4affiliation'
p930
I0
sS'pre2intro'
p931
I0
sS'next2date'
p932
I0
sS'pre3intro'
p933
I0
sS'next2note'
p934
I0
sS'next3title'
p935
I0
sS'next3keyword'
p936
I0
sS'pre2pubnum'
p937
I0
sS'next4affiliation'
p938
I0
sS'next2pubnum'
p939
I0
sS'pre4note'
p940
I0
sg52
I0
sg53
F0.0
sS'pre3web'
p941
I0
sS'next4pubnum'
p942
I0
sS'next4degree'
p943
I0
sg57
I0
sS'pre3author'
p944
F0.5
sS'pre4web'
p945
I0
sS'next1note'
p946
I0
sS'pre3abstract'
p947
I0
sg62
F0.0
sS'pre1degree'
p948
I0
sS'pre4abstract'
p949
I0
sS'pre2degree'
p950
I0
sS'next3degree'
p951
I0
sS'next4abstract'
p952
I0
sS'next1keyword'
p953
I0
sS'pre3phone'
p954
I0
sS'pre1note'
p955
I0
sS'pre4keyword'
p956
I0
sg72
I1
sS'pre4address'
p957
I0
sS'pre2date'
p958
I0
sS'next2title'
p959
I0
sS'pre3address'
p960
I0
sS'next1pubnum'
p961
I0
sS'next2author'
p962
I0
sS'pre2web'
p963
I0
sS'next1email'
p964
I0
sg81
S'web'
p965
sS'pre1web'
p966
I0
sS'pre4email'
p967
I0
sS'pre1keyword'
p968
I0
sS'pre4date'
p969
I0
sS'next1affiliation'
p970
I0
sS'next2degree'
p971
I0
sS'pre1phone'
p972
I0
sg90
g232
sg92
I0
sS'pre2abstract'
p973
I0
sS'next1intro'
p974
I0
sS'next2intro'
p975
I0
sS'pre3degree'
p976
I0
sS'pre1author'
p977
I0
sS'next3page'
p978
I0
sS'next3web'
p979
I0
sS'next4date'
p980
I0
sg101
F0.5
sg102
F0.0
sg103
I0
sS'pre2author'
p981
I0
sg105
I1
sS'next2page'
p982
I0
sS'next3pubnum'
p983
I0
sS'next1degree'
p984
I0
sS'pre1date'
p985
I0
sS'pre4phone'
p986
I0
sg111
I0
sS'next4intro'
p987
I0
sg113
F0.0
sS'next2affiliation'
p988
I0
sS'next4author'
p989
I0
sS'next4note'
p990
I0
sS'pre1pubnum'
p991
I0
sg118
I0
sg119
I0
sS'next2address'
p992
I0
sS'next2keyword'
p993
F0.5
sS'next3note'
p994
I0
sS'next3affiliation'
p995
I0
sS'pre4degree'
p996
I0
sS'next4email'
p997
I0
sg126
F0.0
sS'next1web'
p998
I0
sS'next2email'
p999
I0
sS'next2web'
p1000
I0
sg130
F0.0
sS'pre3page'
p1001
I0
sS'next3author'
p1002
I0
sS'pre1address'
p1003
F0.5
sS'pre2email'
p1004
I0
sS'next4web'
p1005
I0
sS'pre4author'
p1006
I0
sS'pre1title'
p1007
I0
sS'next4page'
p1008
I0
sg139
I0
sS'next4keyword'
p1009
I0
sg141
I0
sS'next1phone'
p1010
I0
sS'pre4intro'
p1011
I0
sS'pre3keyword'
p1012
I0
sS'pre2title'
p1013
I0
sS'pre3email'
p1014
I0
sS'pre4title'
p1015
F0.5
sS'next3date'
p1016
I0
sS'next2phone'
p1017
I0
sS'next1date'
p1018
I0
sg151
F0.0
sS'pre1intro'
p1019
I0
sS'pre2page'
p1020
I0
sS'next2abstract'
p1021
I0
sS'next4address'
p1022
I0
sS'next1title'
p1023
I0
sS'pre1page'
p1024
I0
sg158
I0
sg159
F1.0
sg160
I0
sa(dp1025
S'pre4pubnum'
p1026
I0
sS'next1page'
p1027
I0
sS'pre2keyword'
p1028
I0
sS'next3address'
p1029
I0
sS'pre3affiliation'
p1030
F0.5
sS'pre1email'
p1031
F0.5
sS'next3intro'
p1032
F0.5
sS'pre4page'
p1033
I0
sg10
I0
sg11
F1.0
sS'next4phone'
p1034
I0
sg13
S'"<web> http://www.cse.unsw.edu.au/~timm </web>::line_number::5"'
p1035
sg15
I0
sg16
I0
sS'next1author'
p1036
I0
sg18
F0.0
sg19
I0
sg20
F0.0
sg21
F0.0
sS'pre3note'
p1037
I0
sS'next3phone'
p1038
I0
sS'pre2note'
p1039
I0
sS'next1address'
p1040
I0
sS'pre1affiliation'
p1041
I0
sS'pre2address'
p1042
F0.5
sS'pre1abstract'
p1043
I0
sS'next3abstract'
p1044
I0
sS'pre2affiliation'
p1045
I0
sS'pre3title'
p1046
I0
sg32
I0
sS'pre3pubnum'
p1047
I0
sg34
I174
sS'pre3date'
p1048
I0
sS'next4title'
p1049
I0
sS'next3email'
p1050
I0
sg38
I0
sS'next1abstract'
p1051
I0
sS'pre2phone'
p1052
I0
sS'pre4affiliation'
p1053
I0
sS'pre2intro'
p1054
I0
sS'next2date'
p1055
I0
sS'pre3intro'
p1056
I0
sS'next2note'
p1057
I0
sS'next3title'
p1058
I0
sS'next3keyword'
p1059
I0
sS'pre2pubnum'
p1060
I0
sS'next4affiliation'
p1061
I0
sS'next2pubnum'
p1062
I0
sS'pre4note'
p1063
I0
sg52
I0
sg53
F0.0
sS'pre3web'
p1064
I0
sS'next4pubnum'
p1065
I0
sS'next4degree'
p1066
I0
sg57
I0
sS'pre3author'
p1067
I0
sS'pre4web'
p1068
I0
sS'next1note'
p1069
I0
sS'pre3abstract'
p1070
I0
sg62
F0.0
sS'pre1degree'
p1071
I0
sS'pre4abstract'
p1072
I0
sS'pre2degree'
p1073
I0
sS'next3degree'
p1074
I0
sS'next4abstract'
p1075
I0
sS'next1keyword'
p1076
I0
sS'pre3phone'
p1077
I0
sS'pre1note'
p1078
I0
sS'pre4keyword'
p1079
I0
sg72
I0
sS'pre4address'
p1080
I0
sS'pre2date'
p1081
I0
sS'next2title'
p1082
I0
sS'pre3address'
p1083
I0
sS'next1pubnum'
p1084
I0
sS'next2author'
p1085
I0
sS'pre2web'
p1086
I0
sS'next1email'
p1087
I0
sg81
S'web'
p1088
sS'pre1web'
p1089
I0
sS'pre4email'
p1090
I0
sS'pre1keyword'
p1091
I0
sS'pre4date'
p1092
I0
sS'next1affiliation'
p1093
I0
sS'next2degree'
p1094
I0
sS'pre1phone'
p1095
I0
sg90
g232
sg92
I0
sS'pre2abstract'
p1096
I0
sS'next1intro'
p1097
I0
sS'next2intro'
p1098
I0
sS'pre3degree'
p1099
I0
sS'pre1author'
p1100
I0
sS'next3page'
p1101
I0
sS'next3web'
p1102
I0
sS'next4date'
p1103
I0
sg101
F0.0
sg102
F0.0
sg103
I0
sS'pre2author'
p1104
I0
sg105
I1
sS'next2page'
p1105
I0
sS'next3pubnum'
p1106
I0
sS'next1degree'
p1107
I0
sS'pre1date'
p1108
I0
sS'pre4phone'
p1109
I0
sg111
I0
sS'next4intro'
p1110
I0
sg113
F0.0
sS'next2affiliation'
p1111
I0
sS'next4author'
p1112
I0
sS'next4note'
p1113
I0
sS'pre1pubnum'
p1114
I0
sg118
I0
sg119
I0
sS'next2address'
p1115
I0
sS'next2keyword'
p1116
I0
sS'next3note'
p1117
I0
sS'next3affiliation'
p1118
I0
sS'pre4degree'
p1119
I0
sS'next4email'
p1120
I0
sg126
F0.0
sS'next1web'
p1121
I0
sS'next2email'
p1122
I0
sS'next2web'
p1123
I0
sg130
F0.0
sS'pre3page'
p1124
I0
sS'next3author'
p1125
I0
sS'pre1address'
p1126
I0
sS'pre2email'
p1127
I0
sS'next4web'
p1128
I0
sS'pre4author'
p1129
F0.5
sS'pre1title'
p1130
I0
sS'next4page'
p1131
I0
sg139
I0
sS'next4keyword'
p1132
I0
sg141
I0
sS'next1phone'
p1133
I0
sS'pre4intro'
p1134
I0
sS'pre3keyword'
p1135
I0
sS'pre2title'
p1136
I0
sS'pre3email'
p1137
I0
sS'pre4title'
p1138
I0
sS'next3date'
p1139
I0
sS'next2phone'
p1140
I0
sS'next1date'
p1141
F0.5
sg151
F0.0
sS'pre1intro'
p1142
I0
sS'pre2page'
p1143
I0
sS'next2abstract'
p1144
F0.5
sS'next4address'
p1145
I0
sS'next1title'
p1146
I0
sS'pre1page'
p1147
I0
sg158
I0
sg159
F1.0
sg160
I0
sa(dp1148
S'pre4pubnum'
p1149
I0
sS'next1page'
p1150
I0
sS'pre2keyword'
p1151
I0
sS'next3address'
p1152
F0.5
sS'pre3affiliation'
p1153
I0
sS'pre1email'
p1154
I0
sS'next3intro'
p1155
I0
sS'pre4page'
p1156
I0
sg10
I0
sg11
F1.0
sS'next4phone'
p1157
I0
sg13
S'"<web> http://www.cwi.nl/~pdg/  </web>::line_number::4"'
p1158
sg15
I0
sg16
I0
sS'next1author'
p1159
F0.5
sg18
F0.0
sg19
I0
sg20
F0.0
sg21
F0.0
sS'pre3note'
p1160
I0
sS'next3phone'
p1161
I0
sS'pre2note'
p1162
I0
sS'next1address'
p1163
I0
sS'pre1affiliation'
p1164
I0
sS'pre2address'
p1165
I0
sS'pre1abstract'
p1166
I0
sS'next3abstract'
p1167
I0
sS'pre2affiliation'
p1168
F0.5
sS'pre3title'
p1169
I0
sg32
I0
sS'pre3pubnum'
p1170
I0
sg34
I176
sS'pre3date'
p1171
I0
sS'next4title'
p1172
I0
sS'next3email'
p1173
I0
sg38
I0
sS'next1abstract'
p1174
I0
sS'pre2phone'
p1175
I0
sS'pre4affiliation'
p1176
I0
sS'pre2intro'
p1177
I0
sS'next2date'
p1178
I0
sS'pre3intro'
p1179
I0
sS'next2note'
p1180
I0
sS'next3title'
p1181
I0
sS'next3keyword'
p1182
I0
sS'pre2pubnum'
p1183
I0
sS'next4affiliation'
p1184
I0
sS'next2pubnum'
p1185
I0
sS'pre4note'
p1186
I0
sg52
I0
sg53
F0.0
sS'pre3web'
p1187
I0
sS'next4pubnum'
p1188
I0
sS'next4degree'
p1189
I0
sg57
I0
sS'pre3author'
p1190
F0.5
sS'pre4web'
p1191
I0
sS'next1note'
p1192
I0
sS'pre3abstract'
p1193
I0
sg62
F0.0
sS'pre1degree'
p1194
I0
sS'pre4abstract'
p1195
I0
sS'pre2degree'
p1196
I0
sS'next3degree'
p1197
I0
sS'next4abstract'
p1198
I0
sS'next1keyword'
p1199
I0
sS'pre3phone'
p1200
I0
sS'pre1note'
p1201
I0
sS'pre4keyword'
p1202
I0
sg72
I0
sS'pre4address'
p1203
I0
sS'pre2date'
p1204
I0
sS'next2title'
p1205
I0
sS'pre3address'
p1206
I0
sS'next1pubnum'
p1207
I0
sS'next2author'
p1208
I0
sS'pre2web'
p1209
I0
sS'next1email'
p1210
I0
sg81
S'web'
p1211
sS'pre1web'
p1212
I0
sS'pre4email'
p1213
I0
sS'pre1keyword'
p1214
I0
sS'pre4date'
p1215
I0
sS'next1affiliation'
p1216
I0
sS'next2degree'
p1217
I0
sS'pre1phone'
p1218
I0
sg90
S'4'
p1219
sg92
I0
sS'pre2abstract'
p1220
I0
sS'next1intro'
p1221
I0
sS'next2intro'
p1222
I0
sS'pre3degree'
p1223
I0
sS'pre1author'
p1224
I0
sS'next3page'
p1225
I0
sS'next3web'
p1226
I0
sS'next4date'
p1227
I0
sg101
F0.0
sg102
F0.0
sg103
I0
sS'pre2author'
p1228
I0
sg105
I1
sS'next2page'
p1229
I0
sS'next3pubnum'
p1230
I0
sS'next1degree'
p1231
I0
sS'pre1date'
p1232
I0
sS'pre4phone'
p1233
I0
sg111
I0
sS'next4intro'
p1234
I0
sg113
F0.0
sS'next2affiliation'
p1235
F0.5
sS'next4author'
p1236
I0
sS'next4note'
p1237
I0
sS'pre1pubnum'
p1238
I0
sg118
I0
sg119
I0
sS'next2address'
p1239
I0
sS'next2keyword'
p1240
I0
sS'next3note'
p1241
I0
sS'next3affiliation'
p1242
I0
sS'pre4degree'
p1243
I0
sS'next4email'
p1244
I0
sg126
F0.0
sS'next1web'
p1245
I0
sS'next2email'
p1246
I0
sS'next2web'
p1247
I0
sg130
F0.0
sS'pre3page'
p1248
I0
sS'next3author'
p1249
I0
sS'pre1address'
p1250
F0.5
sS'pre2email'
p1251
I0
sS'next4web'
p1252
F0.5
sS'pre4author'
p1253
I0
sS'pre1title'
p1254
I0
sS'next4page'
p1255
I0
sg139
I0
sS'next4keyword'
p1256
I0
sg141
I0
sS'next1phone'
p1257
I0
sS'pre4intro'
p1258
I0
sS'pre3keyword'
p1259
I0
sS'pre2title'
p1260
I0
sS'pre3email'
p1261
I0
sS'pre4title'
p1262
F0.5
sS'next3date'
p1263
I0
sS'next2phone'
p1264
I0
sS'next1date'
p1265
I0
sg151
F0.0
sS'pre1intro'
p1266
I0
sS'pre2page'
p1267
I0
sS'next2abstract'
p1268
I0
sS'next4address'
p1269
I0
sS'next1title'
p1270
I0
sS'pre1page'
p1271
I0
sg158
I0
sg159
F1.0
sg160
I0
sa(dp1272
S'pre4pubnum'
p1273
I0
sS'next1page'
p1274
I0
sS'pre2keyword'
p1275
I0
sS'next3address'
p1276
I0
sS'pre3affiliation'
p1277
I0
sS'pre1email'
p1278
I0
sS'next3intro'
p1279
F0.5
sS'pre4page'
p1280
I0
sg10
I0
sg11
F1.0
sS'next4phone'
p1281
I0
sg13
S'"<web> http://www.cs.Helsinki.FI/research/cosco/  </web>::line_number::8"'
p1282
sg15
I0
sg16
I0
sS'next1author'
p1283
I0
sg18
F0.0
sg19
I0
sg20
F0.0
sg21
F0.0
sS'pre3note'
p1284
I0
sS'next3phone'
p1285
I0
sS'pre2note'
p1286
I0
sS'next1address'
p1287
I0
sS'pre1affiliation'
p1288
I0
sS'pre2address'
p1289
I0
sS'pre1abstract'
p1290
I0
sS'next3abstract'
p1291
I0
sS'pre2affiliation'
p1292
F0.5
sS'pre3title'
p1293
I0
sg32
I0
sS'pre3pubnum'
p1294
I0
sg34
I176
sS'pre3date'
p1295
I0
sS'next4title'
p1296
I0
sS'next3email'
p1297
I0
sg38
I0
sS'next1abstract'
p1298
I0
sS'pre2phone'
p1299
I0
sS'pre4affiliation'
p1300
I0
sS'pre2intro'
p1301
I0
sS'next2date'
p1302
I0
sS'pre3intro'
p1303
I0
sS'next2note'
p1304
I0
sS'next3title'
p1305
I0
sS'next3keyword'
p1306
I0
sS'pre2pubnum'
p1307
I0
sS'next4affiliation'
p1308
I0
sS'next2pubnum'
p1309
I0
sS'pre4note'
p1310
I0
sg52
I0
sg53
F0.0
sS'pre3web'
p1311
I0
sS'next4pubnum'
p1312
I0
sS'next4degree'
p1313
I0
sg57
I0
sS'pre3author'
p1314
F0.5
sS'pre4web'
p1315
F0.5
sS'next1note'
p1316
F0.5
sS'pre3abstract'
p1317
I0
sg62
F0.0
sS'pre1degree'
p1318
I0
sS'pre4abstract'
p1319
I0
sS'pre2degree'
p1320
I0
sS'next3degree'
p1321
I0
sS'next4abstract'
p1322
I0
sS'next1keyword'
p1323
I0
sS'pre3phone'
p1324
I0
sS'pre1note'
p1325
I0
sS'pre4keyword'
p1326
I0
sg72
I1
sS'pre4address'
p1327
I0
sS'pre2date'
p1328
I0
sS'next2title'
p1329
I0
sS'pre3address'
p1330
I0
sS'next1pubnum'
p1331
I0
sS'next2author'
p1332
I0
sS'pre2web'
p1333
I0
sS'next1email'
p1334
I0
sg81
S'web'
p1335
sS'pre1web'
p1336
I0
sS'pre4email'
p1337
I0
sS'pre1keyword'
p1338
I0
sS'pre4date'
p1339
I0
sS'next1affiliation'
p1340
I0
sS'next2degree'
p1341
I0
sS'pre1phone'
p1342
I0
sg90
S'8'
p1343
sg92
I0
sS'pre2abstract'
p1344
I0
sS'next1intro'
p1345
I0
sS'next2intro'
p1346
I0
sS'pre3degree'
p1347
I0
sS'pre1author'
p1348
I0
sS'next3page'
p1349
I0
sS'next3web'
p1350
I0
sS'next4date'
p1351
I0
sg101
F0.0
sg102
F0.0
sg103
I0
sS'pre2author'
p1352
I0
sg105
I1
sS'next2page'
p1353
I0
sS'next3pubnum'
p1354
I0
sS'next1degree'
p1355
I0
sS'pre1date'
p1356
I0
sS'pre4phone'
p1357
I0
sg111
I0
sS'next4intro'
p1358
I0
sg113
F0.0
sS'next2affiliation'
p1359
I0
sS'next4author'
p1360
I0
sS'next4note'
p1361
I0
sS'pre1pubnum'
p1362
I0
sg118
I0
sg119
I0
sS'next2address'
p1363
I0
sS'next2keyword'
p1364
I0
sS'next3note'
p1365
I0
sS'next3affiliation'
p1366
I0
sS'pre4degree'
p1367
I0
sS'next4email'
p1368
I0
sg126
F0.0
sS'next1web'
p1369
I0
sS'next2email'
p1370
I0
sS'next2web'
p1371
I0
sg130
F0.0
sS'pre3page'
p1372
I0
sS'next3author'
p1373
I0
sS'pre1address'
p1374
F0.5
sS'pre2email'
p1375
I0
sS'next4web'
p1376
I0
sS'pre4author'
p1377
I0
sS'pre1title'
p1378
I0
sS'next4page'
p1379
I0
sg139
I0
sS'next4keyword'
p1380
I0
sg141
I0
sS'next1phone'
p1381
I0
sS'pre4intro'
p1382
I0
sS'pre3keyword'
p1383
I0
sS'pre2title'
p1384
I0
sS'pre3email'
p1385
I0
sS'pre4title'
p1386
I0
sS'next3date'
p1387
I0
sS'next2phone'
p1388
I0
sS'next1date'
p1389
I0
sg151
F0.0
sS'pre1intro'
p1390
I0
sS'pre2page'
p1391
I0
sS'next2abstract'
p1392
F0.5
sS'next4address'
p1393
I0
sS'next1title'
p1394
I0
sS'pre1page'
p1395
I0
sg158
I0
sg159
F1.0
sg160
I0
sa(dp1396
S'pre4pubnum'
p1397
I0
sS'next1page'
p1398
I0
sS'pre2keyword'
p1399
I0
sS'next3address'
p1400
F0.5
sS'pre3affiliation'
p1401
I0
sS'pre1email'
p1402
F0.5
sS'next3intro'
p1403
I0
sS'pre4page'
p1404
I0
sg10
I0
sg11
F1.0
sS'next4phone'
p1405
F0.5
sg13
S'"<web> http://iridia.ulb.ac.be/dorigo/dorigo.html </web>::line_number::12"'
p1406
sg15
I0
sg16
I0
sS'next1author'
p1407
F0.5
sg18
F0.0
sg19
I0
sg20
F0.0
sg21
F0.0
sS'pre3note'
p1408
I0
sS'next3phone'
p1409
I0
sS'pre2note'
p1410
I0
sS'next1address'
p1411
I0
sS'pre1affiliation'
p1412
I0
sS'pre2address'
p1413
I0
sS'pre1abstract'
p1414
I0
sS'next3abstract'
p1415
I0
sS'pre2affiliation'
p1416
I0
sS'pre3title'
p1417
I0
sg32
I0
sS'pre3pubnum'
p1418
I0
sg34
I242
sS'pre3date'
p1419
I0
sS'next4title'
p1420
I0
sS'next3email'
p1421
I0
sg38
I0
sS'next1abstract'
p1422
I0
sS'pre2phone'
p1423
F0.5
sS'pre4affiliation'
p1424
F0.5
sS'pre2intro'
p1425
I0
sS'next2date'
p1426
I0
sS'pre3intro'
p1427
I0
sS'next2note'
p1428
I0
sS'next3title'
p1429
I0
sS'next3keyword'
p1430
I0
sS'pre2pubnum'
p1431
I0
sS'next4affiliation'
p1432
I0
sS'next2pubnum'
p1433
I0
sS'pre4note'
p1434
I0
sg52
I0
sg53
F0.0
sS'pre3web'
p1435
I0
sS'next4pubnum'
p1436
I0
sS'next4degree'
p1437
I0
sg57
I0
sS'pre3author'
p1438
I0
sS'pre4web'
p1439
I0
sS'next1note'
p1440
I0
sS'pre3abstract'
p1441
I0
sg62
F0.0
sS'pre1degree'
p1442
I0
sS'pre4abstract'
p1443
I0
sS'pre2degree'
p1444
I0
sS'next3degree'
p1445
I0
sS'next4abstract'
p1446
I0
sS'next1keyword'
p1447
I0
sS'pre3phone'
p1448
I0
sS'pre1note'
p1449
I0
sS'pre4keyword'
p1450
I0
sg72
I0
sS'pre4address'
p1451
I0
sS'pre2date'
p1452
I0
sS'next2title'
p1453
I0
sS'pre3address'
p1454
F0.5
sS'next1pubnum'
p1455
I0
sS'next2author'
p1456
I0
sS'pre2web'
p1457
I0
sS'next1email'
p1458
I0
sg81
S'web'
p1459
sS'pre1web'
p1460
I0
sS'pre4email'
p1461
I0
sS'pre1keyword'
p1462
I0
sS'pre4date'
p1463
I0
sS'next1affiliation'
p1464
I0
sS'next2degree'
p1465
I0
sS'pre1phone'
p1466
I0
sg90
S'12'
p1467
sg92
I0
sS'pre2abstract'
p1468
I0
sS'next1intro'
p1469
I0
sS'next2intro'
p1470
I0
sS'pre3degree'
p1471
I0
sS'pre1author'
p1472
I0
sS'next3page'
p1473
I0
sS'next3web'
p1474
I0
sS'next4date'
p1475
I0
sg101
F0.0
sg102
F0.0
sg103
I0
sS'pre2author'
p1476
I0
sg105
I1
sS'next2page'
p1477
I0
sS'next3pubnum'
p1478
I0
sS'next1degree'
p1479
I0
sS'pre1date'
p1480
I0
sS'pre4phone'
p1481
I0
sg111
I0
sS'next4intro'
p1482
I0
sg113
F0.0
sS'next2affiliation'
p1483
F0.5
sS'next4author'
p1484
I0
sS'next4note'
p1485
I0
sS'pre1pubnum'
p1486
I0
sg118
I0
sg119
I0
sS'next2address'
p1487
I0
sS'next2keyword'
p1488
I0
sS'next3note'
p1489
I0
sS'next3affiliation'
p1490
I0
sS'pre4degree'
p1491
I0
sS'next4email'
p1492
I0
sg126
F0.0
sS'next1web'
p1493
I0
sS'next2email'
p1494
I0
sS'next2web'
p1495
I0
sg130
F0.0
sS'pre3page'
p1496
I0
sS'next3author'
p1497
I0
sS'pre1address'
p1498
I0
sS'pre2email'
p1499
I0
sS'next4web'
p1500
I0
sS'pre4author'
p1501
I0
sS'pre1title'
p1502
I0
sS'next4page'
p1503
I0
sg139
I0
sS'next4keyword'
p1504
I0
sg141
I0
sS'next1phone'
p1505
I0
sS'pre4intro'
p1506
I0
sS'pre3keyword'
p1507
I0
sS'pre2title'
p1508
I0
sS'pre3email'
p1509
I0
sS'pre4title'
p1510
I0
sS'next3date'
p1511
I0
sS'next2phone'
p1512
I0
sS'next1date'
p1513
I0
sg151
F0.0
sS'pre1intro'
p1514
I0
sS'pre2page'
p1515
I0
sS'next2abstract'
p1516
I0
sS'next4address'
p1517
I0
sS'next1title'
p1518
I0
sS'pre1page'
p1519
I0
sg158
I0
sg159
F1.0
sg160
I0
sa(dp1520
S'pre4pubnum'
p1521
I0
sS'next1page'
p1522
I0
sS'pre2keyword'
p1523
I0
sS'next3address'
p1524
I0
sS'pre3affiliation'
p1525
I0
sS'pre1email'
p1526
F0.5
sS'next3intro'
p1527
I0
sS'pre4page'
p1528
I0
sg10
I0
sg11
F1.0
sS'next4phone'
p1529
I0
sg13
S'"<web> http://www.csr.unibo.it/~maniezzo  </web>::line_number::18"'
p1530
sg15
I0
sg16
I0
sS'next1author'
p1531
I0
sg18
F0.0
sg19
I0
sg20
F0.0
sg21
F0.0
sS'pre3note'
p1532
I0
sS'next3phone'
p1533
I0
sS'pre2note'
p1534
I0
sS'next1address'
p1535
I0
sS'pre1affiliation'
p1536
I0
sS'pre2address'
p1537
I0
sS'pre1abstract'
p1538
I0
sS'next3abstract'
p1539
I0
sS'pre2affiliation'
p1540
I0
sS'pre3title'
p1541
I0
sg32
I0
sS'pre3pubnum'
p1542
I0
sg34
I242
sS'pre3date'
p1543
I0
sS'next4title'
p1544
I0
sS'next3email'
p1545
I0
sg38
I0
sS'next1abstract'
p1546
I0
sS'pre2phone'
p1547
F0.5
sS'pre4affiliation'
p1548
F0.5
sS'pre2intro'
p1549
I0
sS'next2date'
p1550
I0
sS'pre3intro'
p1551
I0
sS'next2note'
p1552
I0
sS'next3title'
p1553
I0
sS'next3keyword'
p1554
F0.5
sS'pre2pubnum'
p1555
I0
sS'next4affiliation'
p1556
I0
sS'next2pubnum'
p1557
I0
sS'pre4note'
p1558
I0
sg52
I0
sg53
F0.0
sS'pre3web'
p1559
I0
sS'next4pubnum'
p1560
I0
sS'next4degree'
p1561
I0
sg57
I0
sS'pre3author'
p1562
I0
sS'pre4web'
p1563
I0
sS'next1note'
p1564
I0
sS'pre3abstract'
p1565
I0
sg62
F0.0
sS'pre1degree'
p1566
I0
sS'pre4abstract'
p1567
I0
sS'pre2degree'
p1568
I0
sS'next3degree'
p1569
I0
sS'next4abstract'
p1570
I0
sS'next1keyword'
p1571
F0.5
sS'pre3phone'
p1572
I0
sS'pre1note'
p1573
I0
sS'pre4keyword'
p1574
I0
sg72
I0
sS'pre4address'
p1575
I0
sS'pre2date'
p1576
I0
sS'next2title'
p1577
I0
sS'pre3address'
p1578
F0.5
sS'next1pubnum'
p1579
I0
sS'next2author'
p1580
I0
sS'pre2web'
p1581
I0
sS'next1email'
p1582
I0
sg81
S'web'
p1583
sS'pre1web'
p1584
I0
sS'pre4email'
p1585
I0
sS'pre1keyword'
p1586
I0
sS'pre4date'
p1587
I0
sS'next1affiliation'
p1588
I0
sS'next2degree'
p1589
I0
sS'pre1phone'
p1590
I0
sg90
S'18'
p1591
sg92
I0
sS'pre2abstract'
p1592
I0
sS'next1intro'
p1593
I0
sS'next2intro'
p1594
I0
sS'pre3degree'
p1595
I0
sS'pre1author'
p1596
I0
sS'next3page'
p1597
I0
sS'next3web'
p1598
I0
sS'next4date'
p1599
I0
sg101
F0.0
sg102
F0.0
sg103
I0
sS'pre2author'
p1600
I0
sg105
I1
sS'next2page'
p1601
I0
sS'next3pubnum'
p1602
I0
sS'next1degree'
p1603
I0
sS'pre1date'
p1604
I0
sS'pre4phone'
p1605
I0
sg111
I0
sS'next4intro'
p1606
I0
sg113
F0.0
sS'next2affiliation'
p1607
I0
sS'next4author'
p1608
I0
sS'next4note'
p1609
I0
sS'pre1pubnum'
p1610
I0
sg118
I0
sg119
I0
sS'next2address'
p1611
I0
sS'next2keyword'
p1612
I0
sS'next3note'
p1613
I0
sS'next3affiliation'
p1614
I0
sS'pre4degree'
p1615
I0
sS'next4email'
p1616
I0
sg126
F0.0
sS'next1web'
p1617
I0
sS'next2email'
p1618
I0
sS'next2web'
p1619
I0
sg130
F0.0
sS'pre3page'
p1620
I0
sS'next3author'
p1621
I0
sS'pre1address'
p1622
I0
sS'pre2email'
p1623
I0
sS'next4web'
p1624
I0
sS'pre4author'
p1625
I0
sS'pre1title'
p1626
I0
sS'next4page'
p1627
F0.5
sg139
I0
sS'next4keyword'
p1628
I0
sg141
I0
sS'next1phone'
p1629
I0
sS'pre4intro'
p1630
I0
sS'pre3keyword'
p1631
I0
sS'pre2title'
p1632
I0
sS'pre3email'
p1633
I0
sS'pre4title'
p1634
I0
sS'next3date'
p1635
I0
sS'next2phone'
p1636
I0
sS'next1date'
p1637
I0
sg151
F0.0
sS'pre1intro'
p1638
I0
sS'pre2page'
p1639
I0
sS'next2abstract'
p1640
F0.5
sS'next4address'
p1641
I0
sS'next1title'
p1642
I0
sS'pre1page'
p1643
I0
sg158
I0
sg159
F1.0
sg160
I0
sa(dp1644
S'pre4pubnum'
p1645
I0
sS'next1page'
p1646
I0
sS'pre2keyword'
p1647
I0
sS'next3address'
p1648
I0
sS'pre3affiliation'
p1649
F0.5
sS'pre1email'
p1650
F0.5
sS'next3intro'
p1651
I0
sS'pre4page'
p1652
I0
sg10
I0
sg11
F1.0
sS'next4phone'
p1653
I0
sg13
S'"<web> http://www.media.mit.edu/~picard/  </web>::line_number::7"'
p1654
sg15
I0
sg16
I0
sS'next1author'
p1655
I0
sg18
F0.0
sg19
I0
sg20
F0.0
sg21
F0.0
sS'pre3note'
p1656
I0
sS'next3phone'
p1657
I0
sS'pre2note'
p1658
I0
sS'next1address'
p1659
I0
sS'pre1affiliation'
p1660
I0
sS'pre2address'
p1661
F0.5
sS'pre1abstract'
p1662
I0
sS'next3abstract'
p1663
I0
sS'pre2affiliation'
p1664
I0
sS'pre3title'
p1665
I0
sg32
I0
sS'pre3pubnum'
p1666
I0
sg34
I274
sS'pre3date'
p1667
I0
sS'next4title'
p1668
I0
sS'next3email'
p1669
I0
sg38
I0
sS'next1abstract'
p1670
F0.5
sS'pre2phone'
p1671
I0
sS'pre4affiliation'
p1672
I0
sS'pre2intro'
p1673
I0
sS'next2date'
p1674
I0
sS'pre3intro'
p1675
I0
sS'next2note'
p1676
I0
sS'next3title'
p1677
I0
sS'next3keyword'
p1678
I0
sS'pre2pubnum'
p1679
I0
sS'next4affiliation'
p1680
I0
sS'next2pubnum'
p1681
I0
sS'pre4note'
p1682
I0
sg52
I0
sg53
F0.0
sS'pre3web'
p1683
I0
sS'next4pubnum'
p1684
I0
sS'next4degree'
p1685
I0
sg57
I0
sS'pre3author'
p1686
I0
sS'pre4web'
p1687
I0
sS'next1note'
p1688
I0
sS'pre3abstract'
p1689
I0
sg62
F0.0
sS'pre1degree'
p1690
I0
sS'pre4abstract'
p1691
I0
sS'pre2degree'
p1692
I0
sS'next3degree'
p1693
I0
sS'next4abstract'
p1694
I0
sS'next1keyword'
p1695
I0
sS'pre3phone'
p1696
I0
sS'pre1note'
p1697
I0
sS'pre4keyword'
p1698
I0
sg72
I0
sS'pre4address'
p1699
I0
sS'pre2date'
p1700
I0
sS'next2title'
p1701
I0
sS'pre3address'
p1702
I0
sS'next1pubnum'
p1703
I0
sS'next2author'
p1704
I0
sS'pre2web'
p1705
I0
sS'next1email'
p1706
I0
sg81
S'web'
p1707
sS'pre1web'
p1708
I0
sS'pre4email'
p1709
I0
sS'pre1keyword'
p1710
I0
sS'pre4date'
p1711
I0
sS'next1affiliation'
p1712
I0
sS'next2degree'
p1713
I0
sS'pre1phone'
p1714
I0
sg90
S'7'
p1715
sg92
I0
sS'pre2abstract'
p1716
I0
sS'next1intro'
p1717
I0
sS'next2intro'
p1718
F0.5
sS'pre3degree'
p1719
I0
sS'pre1author'
p1720
I0
sS'next3page'
p1721
I0
sS'next3web'
p1722
I0
sS'next4date'
p1723
I0
sg101
F0.0
sg102
F0.0
sg103
I0
sS'pre2author'
p1724
I0
sg105
I1
sS'next2page'
p1725
I0
sS'next3pubnum'
p1726
I0
sS'next1degree'
p1727
I0
sS'pre1date'
p1728
I0
sS'pre4phone'
p1729
I0
sg111
I0
sS'next4intro'
p1730
I0
sg113
F0.0
sS'next2affiliation'
p1731
I0
sS'next4author'
p1732
I0
sS'next4note'
p1733
I0
sS'pre1pubnum'
p1734
I0
sg118
I0
sg119
I0
sS'next2address'
p1735
I0
sS'next2keyword'
p1736
I0
sS'next3note'
p1737
I0
sS'next3affiliation'
p1738
I0
sS'pre4degree'
p1739
I0
sS'next4email'
p1740
I0
sg126
F0.0
sS'next1web'
p1741
I0
sS'next2email'
p1742
I0
sS'next2web'
p1743
I0
sg130
F0.0
sS'pre3page'
p1744
I0
sS'next3author'
p1745
I0
sS'pre1address'
p1746
I0
sS'pre2email'
p1747
I0
sS'next4web'
p1748
I0
sS'pre4author'
p1749
F0.5
sS'pre1title'
p1750
I0
sS'next4page'
p1751
I0
sg139
I0
sS'next4keyword'
p1752
I0
sg141
I0
sS'next1phone'
p1753
I0
sS'pre4intro'
p1754
I0
sS'pre3keyword'
p1755
I0
sS'pre2title'
p1756
I0
sS'pre3email'
p1757
I0
sS'pre4title'
p1758
I0
sS'next3date'
p1759
I0
sS'next2phone'
p1760
I0
sS'next1date'
p1761
I0
sg151
F0.0
sS'pre1intro'
p1762
I0
sS'pre2page'
p1763
I0
sS'next2abstract'
p1764
I0
sS'next4address'
p1765
I0
sS'next1title'
p1766
I0
sS'pre1page'
p1767
I0
sg158
I0
sg159
F1.0
sg160
I0
sa(dp1768
S'pre4pubnum'
p1769
I0
sS'next1page'
p1770
I0
sS'pre2keyword'
p1771
I0
sS'next3address'
p1772
I0
sS'pre3affiliation'
p1773
F0.5
sS'pre1email'
p1774
F0.5
sS'next3intro'
p1775
I0
sS'pre4page'
p1776
I0
sg10
I0
sg11
F0.5
sS'next4phone'
p1777
I0
sg13
S'"<web> URL: http://www.disi.unige.it/phd/ateniese/ateniese.html  </web>::line_number::5"'
p1778
sg15
I0
sg16
I0
sS'next1author'
p1779
I0
sg18
F0.0
sg19
I0
sg20
F0.0
sg21
F0.0
sS'pre3note'
p1780
I0
sS'next3phone'
p1781
I0
sS'pre2note'
p1782
I0
sS'next1address'
p1783
I0
sS'pre1affiliation'
p1784
I0
sS'pre2address'
p1785
F0.5
sS'pre1abstract'
p1786
I0
sS'next3abstract'
p1787
I0
sS'pre2affiliation'
p1788
I0
sS'pre3title'
p1789
I0
sg32
I0
sS'pre3pubnum'
p1790
I0
sg34
I285
sS'pre3date'
p1791
I0
sS'next4title'
p1792
I0
sS'next3email'
p1793
F0.5
sg38
I0
sS'next1abstract'
p1794
I0
sS'pre2phone'
p1795
I0
sS'pre4affiliation'
p1796
I0
sS'pre2intro'
p1797
I0
sS'next2date'
p1798
I0
sS'pre3intro'
p1799
I0
sS'next2note'
p1800
I0
sS'next3title'
p1801
I0
sS'next3keyword'
p1802
I0
sS'pre2pubnum'
p1803
I0
sS'next4affiliation'
p1804
I0
sS'next2pubnum'
p1805
I0
sS'pre4note'
p1806
I0
sg52
I0
sg53
F0.0
sS'pre3web'
p1807
I0
sS'next4pubnum'
p1808
I0
sS'next4degree'
p1809
I0
sg57
I0
sS'pre3author'
p1810
I0
sS'pre4web'
p1811
I0
sS'next1note'
p1812
I0
sS'pre3abstract'
p1813
I0
sg62
F0.0
sS'pre1degree'
p1814
I0
sS'pre4abstract'
p1815
I0
sS'pre2degree'
p1816
I0
sS'next3degree'
p1817
I0
sS'next4abstract'
p1818
I0
sS'next1keyword'
p1819
I0
sS'pre3phone'
p1820
I0
sS'pre1note'
p1821
I0
sS'pre4keyword'
p1822
I0
sg72
I1
sS'pre4address'
p1823
I0
sS'pre2date'
p1824
I0
sS'next2title'
p1825
I0
sS'pre3address'
p1826
I0
sS'next1pubnum'
p1827
I0
sS'next2author'
p1828
I0
sS'pre2web'
p1829
I0
sS'next1email'
p1830
I0
sg81
S'web'
p1831
sS'pre1web'
p1832
I0
sS'pre4email'
p1833
I0
sS'pre1keyword'
p1834
I0
sS'pre4date'
p1835
I0
sS'next1affiliation'
p1836
F0.5
sS'next2degree'
p1837
I0
sS'pre1phone'
p1838
I0
sg90
g232
sg92
I0
sS'pre2abstract'
p1839
I0
sS'next1intro'
p1840
I0
sS'next2intro'
p1841
I0
sS'pre3degree'
p1842
I0
sS'pre1author'
p1843
I0
sS'next3page'
p1844
I0
sS'next3web'
p1845
I0
sS'next4date'
p1846
I0
sg101
F0.5
sg102
F0.0
sg103
I0
sS'pre2author'
p1847
I0
sg105
I1
sS'next2page'
p1848
I0
sS'next3pubnum'
p1849
I0
sS'next1degree'
p1850
I0
sS'pre1date'
p1851
I0
sS'pre4phone'
p1852
I0
sg111
I0
sS'next4intro'
p1853
I0
sg113
F0.0
sS'next2affiliation'
p1854
I0
sS'next4author'
p1855
I0
sS'next4note'
p1856
I0
sS'pre1pubnum'
p1857
I0
sg118
I0
sg119
I0
sS'next2address'
p1858
F0.5
sS'next2keyword'
p1859
I0
sS'next3note'
p1860
I0
sS'next3affiliation'
p1861
I0
sS'pre4degree'
p1862
I0
sS'next4email'
p1863
I0
sg126
F0.0
sS'next1web'
p1864
I0
sS'next2email'
p1865
I0
sS'next2web'
p1866
I0
sg130
F0.0
sS'pre3page'
p1867
I0
sS'next3author'
p1868
I0
sS'pre1address'
p1869
I0
sS'pre2email'
p1870
I0
sS'next4web'
p1871
F0.5
sS'pre4author'
p1872
F0.5
sS'pre1title'
p1873
I0
sS'next4page'
p1874
I0
sg139
I0
sS'next4keyword'
p1875
I0
sg141
I0
sS'next1phone'
p1876
I0
sS'pre4intro'
p1877
I0
sS'pre3keyword'
p1878
I0
sS'pre2title'
p1879
I0
sS'pre3email'
p1880
I0
sS'pre4title'
p1881
I0
sS'next3date'
p1882
I0
sS'next2phone'
p1883
I0
sS'next1date'
p1884
I0
sg151
F0.0
sS'pre1intro'
p1885
I0
sS'pre2page'
p1886
I0
sS'next2abstract'
p1887
I0
sS'next4address'
p1888
I0
sS'next1title'
p1889
I0
sS'pre1page'
p1890
I0
sg158
I0
sg159
F1.0
sg160
I0
sa(dp1891
S'pre4pubnum'
p1892
I0
sS'next1page'
p1893
I0
sS'pre2keyword'
p1894
I0
sS'next3address'
p1895
I0
sS'pre3affiliation'
p1896
F0.5
sS'pre1email'
p1897
F0.5
sS'next3intro'
p1898
I0
sS'pre4page'
p1899
I0
sg10
I0
sg11
F0.25
sS'next4phone'
p1900
I0
sg13
S'"<web> URL: http://www.unisa.it/f~carblu, ~adsg  </web>::line_number::9"'
p1901
sg15
I0
sg16
I0
sS'next1author'
p1902
I0
sg18
F0.0
sg19
I0
sg20
F0.0
sg21
F0.0
sS'pre3note'
p1903
I0
sS'next3phone'
p1904
I0
sS'pre2note'
p1905
I0
sS'next1address'
p1906
I0
sS'pre1affiliation'
p1907
I0
sS'pre2address'
p1908
F0.5
sS'pre1abstract'
p1909
I0
sS'next3abstract'
p1910
F0.5
sS'pre2affiliation'
p1911
I0
sS'pre3title'
p1912
I0
sg32
I0
sS'pre3pubnum'
p1913
I0
sg34
I285
sS'pre3date'
p1914
I0
sS'next4title'
p1915
I0
sS'next3email'
p1916
I0
sg38
I0
sS'next1abstract'
p1917
I0
sS'pre2phone'
p1918
I0
sS'pre4affiliation'
p1919
I0
sS'pre2intro'
p1920
I0
sS'next2date'
p1921
I0
sS'pre3intro'
p1922
I0
sS'next2note'
p1923
I0
sS'next3title'
p1924
I0
sS'next3keyword'
p1925
I0
sS'pre2pubnum'
p1926
I0
sS'next4affiliation'
p1927
I0
sS'next2pubnum'
p1928
I0
sS'pre4note'
p1929
I0
sg52
I0
sg53
F0.0
sS'pre3web'
p1930
I0
sS'next4pubnum'
p1931
I0
sS'next4degree'
p1932
I0
sg57
I0
sS'pre3author'
p1933
I0
sS'pre4web'
p1934
F0.5
sS'next1note'
p1935
I0
sS'pre3abstract'
p1936
I0
sg62
F0.0
sS'pre1degree'
p1937
I0
sS'pre4abstract'
p1938
I0
sS'pre2degree'
p1939
I0
sS'next3degree'
p1940
I0
sS'next4abstract'
p1941
I0
sS'next1keyword'
p1942
I0
sS'pre3phone'
p1943
I0
sS'pre1note'
p1944
I0
sS'pre4keyword'
p1945
I0
sg72
I0
sS'pre4address'
p1946
I0
sS'pre2date'
p1947
I0
sS'next2title'
p1948
I0
sS'pre3address'
p1949
I0
sS'next1pubnum'
p1950
I0
sS'next2author'
p1951
I0
sS'pre2web'
p1952
I0
sS'next1email'
p1953
I0
sg81
S'web'
p1954
sS'pre1web'
p1955
I0
sS'pre4email'
p1956
I0
sS'pre1keyword'
p1957
I0
sS'pre4date'
p1958
I0
sS'next1affiliation'
p1959
F0.5
sS'next2degree'
p1960
I0
sS'pre1phone'
p1961
I0
sg90
S'9'
p1962
sg92
I0
sS'pre2abstract'
p1963
I0
sS'next1intro'
p1964
I0
sS'next2intro'
p1965
I0
sS'pre3degree'
p1966
I0
sS'pre1author'
p1967
I0
sS'next3page'
p1968
I0
sS'next3web'
p1969
I0
sS'next4date'
p1970
I0
sg101
F0.75
sg102
F0.0
sg103
I0
sS'pre2author'
p1971
I0
sg105
I1
sS'next2page'
p1972
I0
sS'next3pubnum'
p1973
I0
sS'next1degree'
p1974
I0
sS'pre1date'
p1975
I0
sS'pre4phone'
p1976
I0
sg111
I0
sS'next4intro'
p1977
I0
sg113
F0.0
sS'next2affiliation'
p1978
I0
sS'next4author'
p1979
I0
sS'next4note'
p1980
I0
sS'pre1pubnum'
p1981
I0
sg118
I0
sg119
I0
sS'next2address'
p1982
F0.5
sS'next2keyword'
p1983
I0
sS'next3note'
p1984
I0
sS'next3affiliation'
p1985
I0
sS'pre4degree'
p1986
I0
sS'next4email'
p1987
I0
sg126
F0.0
sS'next1web'
p1988
I0
sS'next2email'
p1989
I0
sS'next2web'
p1990
I0
sg130
F0.0
sS'pre3page'
p1991
I0
sS'next3author'
p1992
I0
sS'pre1address'
p1993
I0
sS'pre2email'
p1994
I0
sS'next4web'
p1995
I0
sS'pre4author'
p1996
I0
sS'pre1title'
p1997
I0
sS'next4page'
p1998
I0
sg139
I0
sS'next4keyword'
p1999
F0.5
sg141
I0
sS'next1phone'
p2000
I0
sS'pre4intro'
p2001
I0
sS'pre3keyword'
p2002
I0
sS'pre2title'
p2003
I0
sS'pre3email'
p2004
I0
sS'pre4title'
p2005
I0
sS'next3date'
p2006
I0
sS'next2phone'
p2007
I0
sS'next1date'
p2008
I0
sg151
F0.0
sS'pre1intro'
p2009
I0
sS'pre2page'
p2010
I0
sS'next2abstract'
p2011
I0
sS'next4address'
p2012
I0
sS'next1title'
p2013
I0
sS'pre1page'
p2014
I0
sg158
I0
sg159
F1.0
sg160
I0
sa(dp2015
S'pre4pubnum'
p2016
I0
sS'next1page'
p2017
I0
sS'pre2keyword'
p2018
I0
sS'next3address'
p2019
I0
sS'pre3affiliation'
p2020
I0
sS'pre1email'
p2021
I0
sS'next3intro'
p2022
I0
sS'pre4page'
p2023
I0
sg10
I0
sg11
F1.0
sS'next4phone'
p2024
I0
sg13
S'"<web> http://ciir.cs.umass.edu/  </web>::line_number::5"'
p2025
sg15
I0
sg16
I0
sS'next1author'
p2026
F0.5
sg18
F0.0
sg19
I0
sg20
F0.0
sg21
F0.0
sS'pre3note'
p2027
I0
sS'next3phone'
p2028
I0
sS'pre2note'
p2029
I0
sS'next1address'
p2030
I0
sS'pre1affiliation'
p2031
I0
sS'pre2address'
p2032
I0
sS'pre1abstract'
p2033
I0
sS'next3abstract'
p2034
I0
sS'pre2affiliation'
p2035
F0.5
sS'pre3title'
p2036
I0
sg32
I0
sS'pre3pubnum'
p2037
I0
sg34
I306
sS'pre3date'
p2038
I0
sS'next4title'
p2039
I0
sS'next3email'
p2040
I0
sg38
I0
sS'next1abstract'
p2041
I0
sS'pre2phone'
p2042
I0
sS'pre4affiliation'
p2043
I0
sS'pre2intro'
p2044
I0
sS'next2date'
p2045
I0
sS'pre3intro'
p2046
I0
sS'next2note'
p2047
I0
sS'next3title'
p2048
I0
sS'next3keyword'
p2049
I0
sS'pre2pubnum'
p2050
I0
sS'next4affiliation'
p2051
I0
sS'next2pubnum'
p2052
I0
sS'pre4note'
p2053
I0
sg52
I0
sg53
F0.0
sS'pre3web'
p2054
I0
sS'next4pubnum'
p2055
I0
sS'next4degree'
p2056
I0
sg57
I0
sS'pre3author'
p2057
I0
sS'pre4web'
p2058
I0
sS'next1note'
p2059
I0
sS'pre3abstract'
p2060
I0
sg62
F0.0
sS'pre1degree'
p2061
I0
sS'pre4abstract'
p2062
I0
sS'pre2degree'
p2063
I0
sS'next3degree'
p2064
I0
sS'next4abstract'
p2065
I0
sS'next1keyword'
p2066
I0
sS'pre3phone'
p2067
I0
sS'pre1note'
p2068
I0
sS'pre4keyword'
p2069
I0
sg72
I0
sS'pre4address'
p2070
I0
sS'pre2date'
p2071
I0
sS'next2title'
p2072
I0
sS'pre3address'
p2073
I0
sS'next1pubnum'
p2074
I0
sS'next2author'
p2075
I0
sS'pre2web'
p2076
I0
sS'next1email'
p2077
I0
sg81
S'web'
p2078
sS'pre1web'
p2079
I0
sS'pre4email'
p2080
I0
sS'pre1keyword'
p2081
I0
sS'pre4date'
p2082
I0
sS'next1affiliation'
p2083
I0
sS'next2degree'
p2084
I0
sS'pre1phone'
p2085
I0
sg90
g232
sg92
I0
sS'pre2abstract'
p2086
I0
sS'next1intro'
p2087
I0
sS'next2intro'
p2088
I0
sS'pre3degree'
p2089
I0
sS'pre1author'
p2090
I0
sS'next3page'
p2091
I0
sS'next3web'
p2092
I0
sS'next4date'
p2093
I0
sg101
F0.0
sg102
F0.0
sg103
I0
sS'pre2author'
p2094
I0
sg105
I1
sS'next2page'
p2095
I0
sS'next3pubnum'
p2096
I0
sS'next1degree'
p2097
I0
sS'pre1date'
p2098
I0
sS'pre4phone'
p2099
I0
sg111
I0
sS'next4intro'
p2100
I0
sg113
F0.0
sS'next2affiliation'
p2101
I0
sS'next4author'
p2102
I0
sS'next4note'
p2103
I0
sS'pre1pubnum'
p2104
I0
sg118
I0
sg119
I0
sS'next2address'
p2105
I0
sS'next2keyword'
p2106
I0
sS'next3note'
p2107
I0
sS'next3affiliation'
p2108
F0.5
sS'pre4degree'
p2109
I0
sS'next4email'
p2110
I0
sg126
F0.0
sS'next1web'
p2111
I0
sS'next2email'
p2112
F0.5
sS'next2web'
p2113
I0
sg130
F0.0
sS'pre3page'
p2114
I0
sS'next3author'
p2115
I0
sS'pre1address'
p2116
F0.5
sS'pre2email'
p2117
I0
sS'next4web'
p2118
I0
sS'pre4author'
p2119
F0.5
sS'pre1title'
p2120
I0
sS'next4page'
p2121
I0
sg139
I0
sS'next4keyword'
p2122
I0
sg141
I0
sS'next1phone'
p2123
I0
sS'pre4intro'
p2124
I0
sS'pre3keyword'
p2125
I0
sS'pre2title'
p2126
I0
sS'pre3email'
p2127
F0.5
sS'pre4title'
p2128
I0
sS'next3date'
p2129
I0
sS'next2phone'
p2130
I0
sS'next1date'
p2131
I0
sg151
F0.0
sS'pre1intro'
p2132
I0
sS'pre2page'
p2133
I0
sS'next2abstract'
p2134
I0
sS'next4address'
p2135
F0.5
sS'next1title'
p2136
I0
sS'pre1page'
p2137
I0
sg158
I0
sg159
F1.0
sg160
I0
sa(dp2138
S'pre4pubnum'
p2139
I0
sS'next1page'
p2140
I0
sS'pre2keyword'
p2141
I0
sS'next3address'
p2142
I0
sS'pre3affiliation'
p2143
I0
sS'pre1email'
p2144
I0
sS'next3intro'
p2145
I0
sS'pre4page'
p2146
I0
sg10
I0
sg11
F1.0
sS'next4phone'
p2147
I0
sg13
S'"<web> http://ciir.cs.umass.edu/  </web>::line_number::10"'
p2148
sg15
I0
sg16
I0
sS'next1author'
p2149
I0
sg18
F0.0
sg19
I0
sg20
F0.0
sg21
F0.0
sS'pre3note'
p2150
I0
sS'next3phone'
p2151
I0
sS'pre2note'
p2152
I0
sS'next1address'
p2153
I0
sS'pre1affiliation'
p2154
I0
sS'pre2address'
p2155
I0
sS'pre1abstract'
p2156
I0
sS'next3abstract'
p2157
I0
sS'pre2affiliation'
p2158
F0.5
sS'pre3title'
p2159
I0
sg32
I0
sS'pre3pubnum'
p2160
I0
sg34
I306
sS'pre3date'
p2161
I0
sS'next4title'
p2162
I0
sS'next3email'
p2163
I0
sg38
I0
sS'next1abstract'
p2164
F0.5
sS'pre2phone'
p2165
I0
sS'pre4affiliation'
p2166
I0
sS'pre2intro'
p2167
I0
sS'next2date'
p2168
I0
sS'pre3intro'
p2169
I0
sS'next2note'
p2170
I0
sS'next3title'
p2171
I0
sS'next3keyword'
p2172
I0
sS'pre2pubnum'
p2173
I0
sS'next4affiliation'
p2174
I0
sS'next2pubnum'
p2175
I0
sS'pre4note'
p2176
I0
sg52
I0
sg53
F0.0
sS'pre3web'
p2177
I0
sS'next4pubnum'
p2178
I0
sS'next4degree'
p2179
I0
sg57
I0
sS'pre3author'
p2180
I0
sS'pre4web'
p2181
I0
sS'next1note'
p2182
I0
sS'pre3abstract'
p2183
I0
sg62
F0.0
sS'pre1degree'
p2184
I0
sS'pre4abstract'
p2185
I0
sS'pre2degree'
p2186
I0
sS'next3degree'
p2187
I0
sS'next4abstract'
p2188
I0
sS'next1keyword'
p2189
I0
sS'pre3phone'
p2190
I0
sS'pre1note'
p2191
I0
sS'pre4keyword'
p2192
I0
sg72
I0
sS'pre4address'
p2193
I0
sS'pre2date'
p2194
I0
sS'next2title'
p2195
I0
sS'pre3address'
p2196
I0
sS'next1pubnum'
p2197
I0
sS'next2author'
p2198
I0
sS'pre2web'
p2199
I0
sS'next1email'
p2200
I0
sg81
S'web'
p2201
sS'pre1web'
p2202
I0
sS'pre4email'
p2203
I0
sS'pre1keyword'
p2204
I0
sS'pre4date'
p2205
I0
sS'next1affiliation'
p2206
I0
sS'next2degree'
p2207
I0
sS'pre1phone'
p2208
I0
sg90
S'10'
p2209
sg92
I0
sS'pre2abstract'
p2210
I0
sS'next1intro'
p2211
I0
sS'next2intro'
p2212
F0.5
sS'pre3degree'
p2213
I0
sS'pre1author'
p2214
I0
sS'next3page'
p2215
I0
sS'next3web'
p2216
I0
sS'next4date'
p2217
I0
sg101
F0.0
sg102
F0.0
sg103
I0
sS'pre2author'
p2218
I0
sg105
I1
sS'next2page'
p2219
I0
sS'next3pubnum'
p2220
I0
sS'next1degree'
p2221
I0
sS'pre1date'
p2222
I0
sS'pre4phone'
p2223
I0
sg111
I0
sS'next4intro'
p2224
I0
sg113
F0.0
sS'next2affiliation'
p2225
I0
sS'next4author'
p2226
I0
sS'next4note'
p2227
I0
sS'pre1pubnum'
p2228
I0
sg118
I0
sg119
I0
sS'next2address'
p2229
I0
sS'next2keyword'
p2230
I0
sS'next3note'
p2231
I0
sS'next3affiliation'
p2232
I0
sS'pre4degree'
p2233
I0
sS'next4email'
p2234
I0
sg126
F0.0
sS'next1web'
p2235
I0
sS'next2email'
p2236
I0
sS'next2web'
p2237
I0
sg130
F0.0
sS'pre3page'
p2238
I0
sS'next3author'
p2239
I0
sS'pre1address'
p2240
F0.5
sS'pre2email'
p2241
I0
sS'next4web'
p2242
I0
sS'pre4author'
p2243
F0.5
sS'pre1title'
p2244
I0
sS'next4page'
p2245
I0
sg139
I0
sS'next4keyword'
p2246
I0
sg141
I0
sS'next1phone'
p2247
I0
sS'pre4intro'
p2248
I0
sS'pre3keyword'
p2249
I0
sS'pre2title'
p2250
I0
sS'pre3email'
p2251
F0.5
sS'pre4title'
p2252
I0
sS'next3date'
p2253
I0
sS'next2phone'
p2254
I0
sS'next1date'
p2255
I0
sg151
F0.0
sS'pre1intro'
p2256
I0
sS'pre2page'
p2257
I0
sS'next2abstract'
p2258
I0
sS'next4address'
p2259
I0
sS'next1title'
p2260
I0
sS'pre1page'
p2261
I0
sg158
I0
sg159
F1.0
sg160
I0
sa(dp2262
S'pre4pubnum'
p2263
I0
sS'next1page'
p2264
I0
sS'pre2keyword'
p2265
I0
sS'next3address'
p2266
F0.5
sS'pre3affiliation'
p2267
F0.5
sS'pre1email'
p2268
F0.5
sS'next3intro'
p2269
I0
sS'pre4page'
p2270
I0
sg10
I0
sg11
F0.6666666666666666
sS'next4phone'
p2271
I0
sg13
S'"<web> http://www:ics:uci:edu/ ~ eppstein. </web>::line_number::9"'
p2272
sg15
I0
sg16
I0
sS'next1author'
p2273
I0
sg18
F0.0
sg19
I0
sg20
F0.0
sg21
F0.0
sS'pre3note'
p2274
I0
sS'next3phone'
p2275
I0
sS'pre2note'
p2276
I0
sS'next1address'
p2277
I0
sS'pre1affiliation'
p2278
I0
sS'pre2address'
p2279
F0.5
sS'pre1abstract'
p2280
I0
sS'next3abstract'
p2281
I0
sS'pre2affiliation'
p2282
I0
sS'pre3title'
p2283
I0
sg32
I0
sS'pre3pubnum'
p2284
I0
sg34
I309
sS'pre3date'
p2285
I0
sS'next4title'
p2286
I0
sS'next3email'
p2287
I0
sg38
I0
sS'next1abstract'
p2288
I0
sS'pre2phone'
p2289
I0
sS'pre4affiliation'
p2290
I0
sS'pre2intro'
p2291
I0
sS'next2date'
p2292
I0
sS'pre3intro'
p2293
I0
sS'next2note'
p2294
I0
sS'next3title'
p2295
I0
sS'next3keyword'
p2296
I0
sS'pre2pubnum'
p2297
I0
sS'next4affiliation'
p2298
I0
sS'next2pubnum'
p2299
I0
sS'pre4note'
p2300
F0.5
sg52
I0
sg53
F0.0
sS'pre3web'
p2301
I0
sS'next4pubnum'
p2302
I0
sS'next4degree'
p2303
I0
sg57
I0
sS'pre3author'
p2304
I0
sS'pre4web'
p2305
I0
sS'next1note'
p2306
F0.5
sS'pre3abstract'
p2307
I0
sg62
F0.0
sS'pre1degree'
p2308
I0
sS'pre4abstract'
p2309
I0
sS'pre2degree'
p2310
I0
sS'next3degree'
p2311
I0
sS'next4abstract'
p2312
I0
sS'next1keyword'
p2313
I0
sS'pre3phone'
p2314
I0
sS'pre1note'
p2315
I0
sS'pre4keyword'
p2316
I0
sg72
I1
sS'pre4address'
p2317
I0
sS'pre2date'
p2318
I0
sS'next2title'
p2319
I0
sS'pre3address'
p2320
I0
sS'next1pubnum'
p2321
I0
sS'next2author'
p2322
I0
sS'pre2web'
p2323
I0
sS'next1email'
p2324
I0
sg81
S'web'
p2325
sS'pre1web'
p2326
I0
sS'pre4email'
p2327
I0
sS'pre1keyword'
p2328
I0
sS'pre4date'
p2329
I0
sS'next1affiliation'
p2330
I0
sS'next2degree'
p2331
I0
sS'pre1phone'
p2332
I0
sg90
g1962
sg92
I0
sS'pre2abstract'
p2333
I0
sS'next1intro'
p2334
I0
sS'next2intro'
p2335
I0
sS'pre3degree'
p2336
I0
sS'pre1author'
p2337
I0
sS'next3page'
p2338
I0
sS'next3web'
p2339
I0
sS'next4date'
p2340
I0
sg101
F0.33333333333333337
sg102
F0.0
sg103
I0
sS'pre2author'
p2341
I0
sg105
I1
sS'next2page'
p2342
I0
sS'next3pubnum'
p2343
I0
sS'next1degree'
p2344
I0
sS'pre1date'
p2345
I0
sS'pre4phone'
p2346
I0
sg111
I0
sS'next4intro'
p2347
I0
sg113
F0.0
sS'next2affiliation'
p2348
F0.5
sS'next4author'
p2349
I0
sS'next4note'
p2350
I0
sS'pre1pubnum'
p2351
I0
sg118
I0
sg119
I0
sS'next2address'
p2352
I0
sS'next2keyword'
p2353
I0
sS'next3note'
p2354
I0
sS'next3affiliation'
p2355
I0
sS'pre4degree'
p2356
I0
sS'next4email'
p2357
F0.5
sg126
F0.0
sS'next1web'
p2358
I0
sS'next2email'
p2359
I0
sS'next2web'
p2360
I0
sg130
F0.0
sS'pre3page'
p2361
I0
sS'next3author'
p2362
I0
sS'pre1address'
p2363
I0
sS'pre2email'
p2364
I0
sS'next4web'
p2365
I0
sS'pre4author'
p2366
I0
sS'pre1title'
p2367
I0
sS'next4page'
p2368
I0
sg139
I0
sS'next4keyword'
p2369
I0
sg141
I0
sS'next1phone'
p2370
I0
sS'pre4intro'
p2371
I0
sS'pre3keyword'
p2372
I0
sS'pre2title'
p2373
I0
sS'pre3email'
p2374
I0
sS'pre4title'
p2375
I0
sS'next3date'
p2376
I0
sS'next2phone'
p2377
I0
sS'next1date'
p2378
I0
sg151
F0.0
sS'pre1intro'
p2379
I0
sS'pre2page'
p2380
I0
sS'next2abstract'
p2381
I0
sS'next4address'
p2382
I0
sS'next1title'
p2383
I0
sS'pre1page'
p2384
I0
sg158
I0
sg159
F1.0
sg160
I0
sa(dp2385
S'pre4pubnum'
p2386
I0
sS'next1page'
p2387
I0
sS'pre2keyword'
p2388
I0
sS'next3address'
p2389
I0
sS'pre3affiliation'
p2390
F0.5
sS'pre1email'
p2391
F0.5
sS'next3intro'
p2392
I0
sS'pre4page'
p2393
I0
sg10
I0
sg11
F0.3333333333333333
sS'next4phone'
p2394
I0
sg13
S'"<web> http://www:cs:duke:edu/ ~ jeffe. </web>::line_number::14"'
p2395
sg15
I0
sg16
I0
sS'next1author'
p2396
I0
sg18
F0.0
sg19
I0
sg20
F0.0
sg21
F0.0
sS'pre3note'
p2397
I0
sS'next3phone'
p2398
I0
sS'pre2note'
p2399
I0
sS'next1address'
p2400
I0
sS'pre1affiliation'
p2401
I0
sS'pre2address'
p2402
F0.5
sS'pre1abstract'
p2403
I0
sS'next3abstract'
p2404
I0
sS'pre2affiliation'
p2405
I0
sS'pre3title'
p2406
I0
sg32
I0
sS'pre3pubnum'
p2407
I0
sg34
I309
sS'pre3date'
p2408
I0
sS'next4title'
p2409
I0
sS'next3email'
p2410
I0
sg38
I0
sS'next1abstract'
p2411
I0
sS'pre2phone'
p2412
I0
sS'pre4affiliation'
p2413
I0
sS'pre2intro'
p2414
I0
sS'next2date'
p2415
I0
sS'pre3intro'
p2416
I0
sS'next2note'
p2417
I0
sS'next3title'
p2418
I0
sS'next3keyword'
p2419
I0
sS'pre2pubnum'
p2420
I0
sS'next4affiliation'
p2421
I0
sS'next2pubnum'
p2422
I0
sS'pre4note'
p2423
F0.5
sg52
I0
sg53
F0.0
sS'pre3web'
p2424
I0
sS'next4pubnum'
p2425
I0
sS'next4degree'
p2426
I0
sg57
I0
sS'pre3author'
p2427
I0
sS'pre4web'
p2428
I0
sS'next1note'
p2429
F0.5
sS'pre3abstract'
p2430
I0
sg62
F0.0
sS'pre1degree'
p2431
I0
sS'pre4abstract'
p2432
I0
sS'pre2degree'
p2433
I0
sS'next3degree'
p2434
I0
sS'next4abstract'
p2435
I0
sS'next1keyword'
p2436
I0
sS'pre3phone'
p2437
I0
sS'pre1note'
p2438
I0
sS'pre4keyword'
p2439
I0
sg72
I0
sS'pre4address'
p2440
I0
sS'pre2date'
p2441
I0
sS'next2title'
p2442
I0
sS'pre3address'
p2443
I0
sS'next1pubnum'
p2444
I0
sS'next2author'
p2445
I0
sS'pre2web'
p2446
I0
sS'next1email'
p2447
I0
sg81
S'web'
p2448
sS'pre1web'
p2449
I0
sS'pre4email'
p2450
I0
sS'pre1keyword'
p2451
I0
sS'pre4date'
p2452
I0
sS'next1affiliation'
p2453
I0
sS'next2degree'
p2454
I0
sS'pre1phone'
p2455
I0
sg90
S'14'
p2456
sg92
I0
sS'pre2abstract'
p2457
I0
sS'next1intro'
p2458
I0
sS'next2intro'
p2459
I0
sS'pre3degree'
p2460
I0
sS'pre1author'
p2461
I0
sS'next3page'
p2462
I0
sS'next3web'
p2463
I0
sS'next4date'
p2464
I0
sg101
F0.6666666666666667
sg102
F0.0
sg103
I0
sS'pre2author'
p2465
I0
sg105
I1
sS'next2page'
p2466
F0.5
sS'next3pubnum'
p2467
I0
sS'next1degree'
p2468
I0
sS'pre1date'
p2469
I0
sS'pre4phone'
p2470
I0
sg111
I0
sS'next4intro'
p2471
I0
sg113
F0.0
sS'next2affiliation'
p2472
I0
sS'next4author'
p2473
I0
sS'next4note'
p2474
I0
sS'pre1pubnum'
p2475
I0
sg118
I0
sg119
I0
sS'next2address'
p2476
I0
sS'next2keyword'
p2477
I0
sS'next3note'
p2478
I0
sS'next3affiliation'
p2479
I0
sS'pre4degree'
p2480
I0
sS'next4email'
p2481
I0
sg126
F0.0
sS'next1web'
p2482
I0
sS'next2email'
p2483
I0
sS'next2web'
p2484
I0
sg130
F0.0
sS'pre3page'
p2485
I0
sS'next3author'
p2486
I0
sS'pre1address'
p2487
I0
sS'pre2email'
p2488
I0
sS'next4web'
p2489
I0
sS'pre4author'
p2490
I0
sS'pre1title'
p2491
I0
sS'next4page'
p2492
I0
sg139
I0
sS'next4keyword'
p2493
I0
sg141
I0
sS'next1phone'
p2494
I0
sS'pre4intro'
p2495
I0
sS'pre3keyword'
p2496
I0
sS'pre2title'
p2497
I0
sS'pre3email'
p2498
I0
sS'pre4title'
p2499
I0
sS'next3date'
p2500
I0
sS'next2phone'
p2501
I0
sS'next1date'
p2502
I0
sg151
F0.0
sS'pre1intro'
p2503
I0
sS'pre2page'
p2504
I0
sS'next2abstract'
p2505
I0
sS'next4address'
p2506
I0
sS'next1title'
p2507
I0
sS'pre1page'
p2508
I0
sg158
I0
sg159
F1.0
sg160
I0
sa(dp2509
S'pre4pubnum'
p2510
I0
sS'next1page'
p2511
I0
sS'pre2keyword'
p2512
I0
sS'next3address'
p2513
I0
sS'pre3affiliation'
p2514
F0.5
sS'pre1email'
p2515
F0.5
sS'next3intro'
p2516
I0
sS'pre4page'
p2517
I0
sg10
I0
sg11
F1.0
sS'next4phone'
p2518
I0
sg13
S'"<web> http://www.vuse.vanderbilt.edu/~dfisher/dfisher.html  </web>::line_number::8"'
p2519
sg15
I0
sg16
I0
sS'next1author'
p2520
I0
sg18
F0.0
sg19
I0
sg20
F0.0
sg21
F0.0
sS'pre3note'
p2521
I0
sS'next3phone'
p2522
I0
sS'pre2note'
p2523
I0
sS'next1address'
p2524
I0
sS'pre1affiliation'
p2525
I0
sS'pre2address'
p2526
F0.5
sS'pre1abstract'
p2527
I0
sS'next3abstract'
p2528
I0
sS'pre2affiliation'
p2529
I0
sS'pre3title'
p2530
I0
sg32
I0
sS'pre3pubnum'
p2531
I0
sg34
I312
sS'pre3date'
p2532
I0
sS'next4title'
p2533
I0
sS'next3email'
p2534
I0
sg38
I0
sS'next1abstract'
p2535
I0
sS'pre2phone'
p2536
I0
sS'pre4affiliation'
p2537
I0
sS'pre2intro'
p2538
I0
sS'next2date'
p2539
I0
sS'pre3intro'
p2540
I0
sS'next2note'
p2541
I0
sS'next3title'
p2542
I0
sS'next3keyword'
p2543
F0.5
sS'pre2pubnum'
p2544
I0
sS'next4affiliation'
p2545
I0
sS'next2pubnum'
p2546
I0
sS'pre4note'
p2547
I0
sg52
I0
sg53
F0.0
sS'pre3web'
p2548
I0
sS'next4pubnum'
p2549
I0
sS'next4degree'
p2550
I0
sg57
I0
sS'pre3author'
p2551
I0
sS'pre4web'
p2552
I0
sS'next1note'
p2553
I0
sS'pre3abstract'
p2554
I0
sg62
F0.0
sS'pre1degree'
p2555
I0
sS'pre4abstract'
p2556
I0
sS'pre2degree'
p2557
I0
sS'next3degree'
p2558
I0
sS'next4abstract'
p2559
I0
sS'next1keyword'
p2560
I0
sS'pre3phone'
p2561
I0
sS'pre1note'
p2562
I0
sS'pre4keyword'
p2563
I0
sg72
I0
sS'pre4address'
p2564
F0.5
sS'pre2date'
p2565
I0
sS'next2title'
p2566
I0
sS'pre3address'
p2567
I0
sS'next1pubnum'
p2568
I0
sS'next2author'
p2569
I0
sS'pre2web'
p2570
I0
sS'next1email'
p2571
I0
sg81
S'web'
p2572
sS'pre1web'
p2573
I0
sS'pre4email'
p2574
I0
sS'pre1keyword'
p2575
I0
sS'pre4date'
p2576
I0
sS'next1affiliation'
p2577
I0
sS'next2degree'
p2578
I0
sS'pre1phone'
p2579
I0
sg90
g1343
sg92
I0
sS'pre2abstract'
p2580
I0
sS'next1intro'
p2581
I0
sS'next2intro'
p2582
I0
sS'pre3degree'
p2583
I0
sS'pre1author'
p2584
I0
sS'next3page'
p2585
I0
sS'next3web'
p2586
I0
sS'next4date'
p2587
I0
sg101
F0.0
sg102
F0.0
sg103
I0
sS'pre2author'
p2588
I0
sg105
I1
sS'next2page'
p2589
I0
sS'next3pubnum'
p2590
I0
sS'next1degree'
p2591
I0
sS'pre1date'
p2592
I0
sS'pre4phone'
p2593
I0
sg111
I0
sS'next4intro'
p2594
I0
sg113
F0.0
sS'next2affiliation'
p2595
I0
sS'next4author'
p2596
I0
sS'next4note'
p2597
I0
sS'pre1pubnum'
p2598
I0
sg118
I0
sg119
I0
sS'next2address'
p2599
I0
sS'next2keyword'
p2600
I0
sS'next3note'
p2601
I0
sS'next3affiliation'
p2602
I0
sS'pre4degree'
p2603
I0
sS'next4email'
p2604
I0
sg126
F0.0
sS'next1web'
p2605
I0
sS'next2email'
p2606
I0
sS'next2web'
p2607
I0
sg130
F0.0
sS'pre3page'
p2608
I0
sS'next3author'
p2609
I0
sS'pre1address'
p2610
I0
sS'pre2email'
p2611
I0
sS'next4web'
p2612
I0
sS'pre4author'
p2613
I0
sS'pre1title'
p2614
I0
sS'next4page'
p2615
F0.5
sg139
I0
sS'next4keyword'
p2616
I0
sg141
I0
sS'next1phone'
p2617
F0.5
sS'pre4intro'
p2618
I0
sS'pre3keyword'
p2619
I0
sS'pre2title'
p2620
I0
sS'pre3email'
p2621
I0
sS'pre4title'
p2622
I0
sS'next3date'
p2623
I0
sS'next2phone'
p2624
I0
sS'next1date'
p2625
I0
sg151
F0.0
sS'pre1intro'
p2626
I0
sS'pre2page'
p2627
I0
sS'next2abstract'
p2628
F0.5
sS'next4address'
p2629
I0
sS'next1title'
p2630
I0
sS'pre1page'
p2631
I0
sg158
I0
sg159
F1.0
sg160
I0
sa(dp2632
S'pre4pubnum'
p2633
I0
sS'next1page'
p2634
I0
sS'pre2keyword'
p2635
I0
sS'next3address'
p2636
I0
sS'pre3affiliation'
p2637
F0.5
sS'pre1email'
p2638
F0.5
sS'next3intro'
p2639
I0
sS'pre4page'
p2640
I0
sg10
I0
sg11
F1.0
sS'next4phone'
p2641
I0
sg13
S'"<web> http://iacoma.cs.uiuc.edu  </web>::line_number::5"'
p2642
sg15
I0
sg16
I0
sS'next1author'
p2643
I0
sg18
F0.0
sg19
I0
sg20
F0.0
sg21
F0.0
sS'pre3note'
p2644
I0
sS'next3phone'
p2645
I0
sS'pre2note'
p2646
I0
sS'next1address'
p2647
I0
sS'pre1affiliation'
p2648
I0
sS'pre2address'
p2649
F0.5
sS'pre1abstract'
p2650
I0
sS'next3abstract'
p2651
I0
sS'pre2affiliation'
p2652
I0
sS'pre3title'
p2653
I0
sg32
I0
sS'pre3pubnum'
p2654
I0
sg34
I345
sS'pre3date'
p2655
I0
sS'next4title'
p2656
I0
sS'next3email'
p2657
I0
sg38
I0
sS'next1abstract'
p2658
F0.5
sS'pre2phone'
p2659
I0
sS'pre4affiliation'
p2660
I0
sS'pre2intro'
p2661
I0
sS'next2date'
p2662
I0
sS'pre3intro'
p2663
I0
sS'next2note'
p2664
I0
sS'next3title'
p2665
I0
sS'next3keyword'
p2666
I0
sS'pre2pubnum'
p2667
I0
sS'next4affiliation'
p2668
I0
sS'next2pubnum'
p2669
I0
sS'pre4note'
p2670
I0
sg52
I0
sg53
F0.0
sS'pre3web'
p2671
I0
sS'next4pubnum'
p2672
I0
sS'next4degree'
p2673
I0
sg57
I0
sS'pre3author'
p2674
I0
sS'pre4web'
p2675
I0
sS'next1note'
p2676
I0
sS'pre3abstract'
p2677
I0
sg62
F0.0
sS'pre1degree'
p2678
I0
sS'pre4abstract'
p2679
I0
sS'pre2degree'
p2680
I0
sS'next3degree'
p2681
I0
sS'next4abstract'
p2682
I0
sS'next1keyword'
p2683
I0
sS'pre3phone'
p2684
I0
sS'pre1note'
p2685
I0
sS'pre4keyword'
p2686
I0
sg72
I0
sS'pre4address'
p2687
I0
sS'pre2date'
p2688
I0
sS'next2title'
p2689
I0
sS'pre3address'
p2690
I0
sS'next1pubnum'
p2691
I0
sS'next2author'
p2692
I0
sS'pre2web'
p2693
I0
sS'next1email'
p2694
I0
sg81
S'web'
p2695
sS'pre1web'
p2696
I0
sS'pre4email'
p2697
I0
sS'pre1keyword'
p2698
I0
sS'pre4date'
p2699
I0
sS'next1affiliation'
p2700
I0
sS'next2degree'
p2701
I0
sS'pre1phone'
p2702
I0
sg90
g232
sg92
I0
sS'pre2abstract'
p2703
I0
sS'next1intro'
p2704
I0
sS'next2intro'
p2705
F0.5
sS'pre3degree'
p2706
I0
sS'pre1author'
p2707
I0
sS'next3page'
p2708
I0
sS'next3web'
p2709
I0
sS'next4date'
p2710
I0
sg101
F0.0
sg102
F0.0
sg103
I0
sS'pre2author'
p2711
I0
sg105
I1
sS'next2page'
p2712
I0
sS'next3pubnum'
p2713
I0
sS'next1degree'
p2714
I0
sS'pre1date'
p2715
I0
sS'pre4phone'
p2716
I0
sg111
I0
sS'next4intro'
p2717
I0
sg113
F0.0
sS'next2affiliation'
p2718
I0
sS'next4author'
p2719
I0
sS'next4note'
p2720
I0
sS'pre1pubnum'
p2721
I0
sg118
I0
sg119
I0
sS'next2address'
p2722
I0
sS'next2keyword'
p2723
I0
sS'next3note'
p2724
I0
sS'next3affiliation'
p2725
I0
sS'pre4degree'
p2726
I0
sS'next4email'
p2727
I0
sg126
F0.0
sS'next1web'
p2728
I0
sS'next2email'
p2729
I0
sS'next2web'
p2730
I0
sg130
F0.0
sS'pre3page'
p2731
I0
sS'next3author'
p2732
I0
sS'pre1address'
p2733
I0
sS'pre2email'
p2734
I0
sS'next4web'
p2735
I0
sS'pre4author'
p2736
F0.5
sS'pre1title'
p2737
I0
sS'next4page'
p2738
I0
sg139
I0
sS'next4keyword'
p2739
I0
sg141
I0
sS'next1phone'
p2740
I0
sS'pre4intro'
p2741
I0
sS'pre3keyword'
p2742
I0
sS'pre2title'
p2743
I0
sS'pre3email'
p2744
I0
sS'pre4title'
p2745
I0
sS'next3date'
p2746
I0
sS'next2phone'
p2747
I0
sS'next1date'
p2748
I0
sg151
F0.0
sS'pre1intro'
p2749
I0
sS'pre2page'
p2750
I0
sS'next2abstract'
p2751
I0
sS'next4address'
p2752
I0
sS'next1title'
p2753
I0
sS'pre1page'
p2754
I0
sg158
I0
sg159
F1.0
sg160
I0
sa(dp2755
S'pre4pubnum'
p2756
I0
sS'next1page'
p2757
I0
sS'pre2keyword'
p2758
I0
sS'next3address'
p2759
I0
sS'pre3affiliation'
p2760
I0
sS'pre1email'
p2761
F0.5
sS'next3intro'
p2762
I0
sS'pre4page'
p2763
I0
sg10
I0
sg11
F0.25
sS'next4phone'
p2764
I0
sg13
S'"<web> 4. WWW URL: http://www.usenix.org  </web>::line_number::4"'
p2765
sg15
I0
sg16
I0
sS'next1author'
p2766
I0
sg18
F0.03225806451612903
sg19
I0
sg20
F0.0
sg21
F0.0
sS'pre3note'
p2767
I0
sS'next3phone'
p2768
I0
sS'pre2note'
p2769
I0
sS'next1address'
p2770
I0
sS'pre1affiliation'
p2771
I0
sS'pre2address'
p2772
I0
sS'pre1abstract'
p2773
I0
sS'next3abstract'
p2774
I0
sS'pre2affiliation'
p2775
I0
sS'pre3title'
p2776
I0
sg32
I0
sS'pre3pubnum'
p2777
I0
sg34
I385
sS'pre3date'
p2778
I0
sS'next4title'
p2779
I0
sS'next3email'
p2780
I0
sg38
I0
sS'next1abstract'
p2781
I0
sS'pre2phone'
p2782
F0.5
sS'pre4affiliation'
p2783
I0
sS'pre2intro'
p2784
I0
sS'next2date'
p2785
I0
sS'pre3intro'
p2786
I0
sS'next2note'
p2787
I0
sS'next3title'
p2788
I0
sS'next3keyword'
p2789
I0
sS'pre2pubnum'
p2790
I0
sS'next4affiliation'
p2791
I0
sS'next2pubnum'
p2792
I0
sS'pre4note'
p2793
F0.5
sg52
I0
sg53
F0.0
sS'pre3web'
p2794
I0
sS'next4pubnum'
p2795
I0
sS'next4degree'
p2796
I0
sg57
I0
sS'pre3author'
p2797
I0
sS'pre4web'
p2798
I0
sS'next1note'
p2799
I0
sS'pre3abstract'
p2800
I0
sg62
F0.0
sS'pre1degree'
p2801
I0
sS'pre4abstract'
p2802
I0
sS'pre2degree'
p2803
I0
sS'next3degree'
p2804
I0
sS'next4abstract'
p2805
I0
sS'next1keyword'
p2806
I0
sS'pre3phone'
p2807
F0.5
sS'pre1note'
p2808
I0
sS'pre4keyword'
p2809
I0
sg72
I0
sS'pre4address'
p2810
I0
sS'pre2date'
p2811
I0
sS'next2title'
p2812
I0
sS'pre3address'
p2813
I0
sS'next1pubnum'
p2814
I0
sS'next2author'
p2815
F0.5
sS'pre2web'
p2816
I0
sS'next1email'
p2817
I0
sg81
S'web'
p2818
sS'pre1web'
p2819
I0
sS'pre4email'
p2820
I0
sS'pre1keyword'
p2821
I0
sS'pre4date'
p2822
I0
sS'next1affiliation'
p2823
I0
sS'next2degree'
p2824
I0
sS'pre1phone'
p2825
I0
sg90
g1219
sg92
I0
sS'pre2abstract'
p2826
I0
sS'next1intro'
p2827
I0
sS'next2intro'
p2828
I0
sS'pre3degree'
p2829
I0
sS'pre1author'
p2830
I0
sS'next3page'
p2831
I0
sS'next3web'
p2832
I0
sS'next4date'
p2833
I0
sg101
F0.75
sg102
F0.0
sg103
I0
sS'pre2author'
p2834
I0
sg105
I1
sS'next2page'
p2835
I0
sS'next3pubnum'
p2836
I0
sS'next1degree'
p2837
I0
sS'pre1date'
p2838
I0
sS'pre4phone'
p2839
I0
sg111
I0
sS'next4intro'
p2840
I0
sg113
F0.0
sS'next2affiliation'
p2841
I0
sS'next4author'
p2842
I0
sS'next4note'
p2843
I0
sS'pre1pubnum'
p2844
I0
sg118
I0
sg119
I0
sS'next2address'
p2845
I0
sS'next2keyword'
p2846
I0
sS'next3note'
p2847
I0
sS'next3affiliation'
p2848
F0.5
sS'pre4degree'
p2849
I0
sS'next4email'
p2850
I0
sg126
F0.0
sS'next1web'
p2851
I0
sS'next2email'
p2852
I0
sS'next2web'
p2853
I0
sg130
F0.0
sS'pre3page'
p2854
I0
sS'next3author'
p2855
I0
sS'pre1address'
p2856
I0
sS'pre2email'
p2857
I0
sS'next4web'
p2858
I0
sS'pre4author'
p2859
I0
sS'pre1title'
p2860
I0
sS'next4page'
p2861
F0.5
sg139
I0
sS'next4keyword'
p2862
I0
sg141
I0
sS'next1phone'
p2863
I0
sS'pre4intro'
p2864
I0
sS'pre3keyword'
p2865
I0
sS'pre2title'
p2866
I0
sS'pre3email'
p2867
I0
sS'pre4title'
p2868
I0
sS'next3date'
p2869
I0
sS'next2phone'
p2870
I0
sS'next1date'
p2871
I0
sg151
F0.0
sS'pre1intro'
p2872
I0
sS'pre2page'
p2873
I0
sS'next2abstract'
p2874
I0
sS'next4address'
p2875
I0
sS'next1title'
p2876
F0.5
sS'pre1page'
p2877
I0
sg158
I0
sg159
F1.0
sg160
I0
sa(dp2878
S'pre4pubnum'
p2879
I0
sS'next1page'
p2880
I0
sS'pre2keyword'
p2881
I0
sS'next3address'
p2882
F0.5
sS'pre3affiliation'
p2883
I0
sS'pre1email'
p2884
I0
sS'next3intro'
p2885
I0
sS'pre4page'
p2886
I0
sg10
I0
sg11
F1.0
sS'next4phone'
p2887
I0
sg13
S'"<web> http://www.sdm.de/g/arcus  </web>::line_number::7"'
p2888
sg15
I0
sg16
I0
sS'next1author'
p2889
I0
sg18
F0.0
sg19
I0
sg20
F0.0
sg21
F0.0
sS'pre3note'
p2890
I0
sS'next3phone'
p2891
I0
sS'pre2note'
p2892
I0
sS'next1address'
p2893
I0
sS'pre1affiliation'
p2894
I0
sS'pre2address'
p2895
I0
sS'pre1abstract'
p2896
I0
sS'next3abstract'
p2897
I0
sS'pre2affiliation'
p2898
I0
sS'pre3title'
p2899
I0
sg32
I0
sS'pre3pubnum'
p2900
I0
sg34
I389
sS'pre3date'
p2901
I0
sS'next4title'
p2902
I0
sS'next3email'
p2903
I0
sg38
I0
sS'next1abstract'
p2904
I0
sS'pre2phone'
p2905
I0
sS'pre4affiliation'
p2906
F0.5
sS'pre2intro'
p2907
I0
sS'next2date'
p2908
I0
sS'pre3intro'
p2909
I0
sS'next2note'
p2910
I0
sS'next3title'
p2911
I0
sS'next3keyword'
p2912
I0
sS'pre2pubnum'
p2913
I0
sS'next4affiliation'
p2914
I0
sS'next2pubnum'
p2915
I0
sS'pre4note'
p2916
I0
sg52
I0
sg53
F0.0
sS'pre3web'
p2917
I0
sS'next4pubnum'
p2918
I0
sS'next4degree'
p2919
I0
sg57
I0
sS'pre3author'
p2920
I0
sS'pre4web'
p2921
I0
sS'next1note'
p2922
I0
sS'pre3abstract'
p2923
I0
sg62
F0.0
sS'pre1degree'
p2924
I0
sS'pre4abstract'
p2925
I0
sS'pre2degree'
p2926
I0
sS'next3degree'
p2927
I0
sS'next4abstract'
p2928
I0
sS'next1keyword'
p2929
I0
sS'pre3phone'
p2930
I0
sS'pre1note'
p2931
I0
sS'pre4keyword'
p2932
I0
sg72
I0
sS'pre4address'
p2933
I0
sS'pre2date'
p2934
I0
sS'next2title'
p2935
I0
sS'pre3address'
p2936
F0.5
sS'next1pubnum'
p2937
I0
sS'next2author'
p2938
I0
sS'pre2web'
p2939
I0
sS'next1email'
p2940
I0
sg81
S'web'
p2941
sS'pre1web'
p2942
I0
sS'pre4email'
p2943
I0
sS'pre1keyword'
p2944
I0
sS'pre4date'
p2945
I0
sS'next1affiliation'
p2946
I0
sS'next2degree'
p2947
I0
sS'pre1phone'
p2948
F0.5
sg90
g1715
sg92
I0
sS'pre2abstract'
p2949
I0
sS'next1intro'
p2950
I0
sS'next2intro'
p2951
I0
sS'pre3degree'
p2952
I0
sS'pre1author'
p2953
I0
sS'next3page'
p2954
I0
sS'next3web'
p2955
I0
sS'next4date'
p2956
I0
sg101
F0.0
sg102
F0.0
sg103
I0
sS'pre2author'
p2957
I0
sg105
I1
sS'next2page'
p2958
I0
sS'next3pubnum'
p2959
I0
sS'next1degree'
p2960
I0
sS'pre1date'
p2961
I0
sS'pre4phone'
p2962
I0
sg111
I0
sS'next4intro'
p2963
I0
sg113
F0.0
sS'next2affiliation'
p2964
F0.5
sS'next4author'
p2965
I0
sS'next4note'
p2966
I0
sS'pre1pubnum'
p2967
I0
sg118
I0
sg119
I0
sS'next2address'
p2968
I0
sS'next2keyword'
p2969
I0
sS'next3note'
p2970
I0
sS'next3affiliation'
p2971
I0
sS'pre4degree'
p2972
I0
sS'next4email'
p2973
F0.5
sg126
F0.0
sS'next1web'
p2974
I0
sS'next2email'
p2975
I0
sS'next2web'
p2976
I0
sg130
F0.0
sS'pre3page'
p2977
I0
sS'next3author'
p2978
I0
sS'pre1address'
p2979
I0
sS'pre2email'
p2980
F0.5
sS'next4web'
p2981
I0
sS'pre4author'
p2982
I0
sS'pre1title'
p2983
I0
sS'next4page'
p2984
I0
sg139
I0
sS'next4keyword'
p2985
I0
sg141
I0
sS'next1phone'
p2986
I0
sS'pre4intro'
p2987
I0
sS'pre3keyword'
p2988
I0
sS'pre2title'
p2989
I0
sS'pre3email'
p2990
I0
sS'pre4title'
p2991
I0
sS'next3date'
p2992
I0
sS'next2phone'
p2993
I0
sS'next1date'
p2994
I0
sg151
F0.0
sS'pre1intro'
p2995
I0
sS'pre2page'
p2996
I0
sS'next2abstract'
p2997
I0
sS'next4address'
p2998
I0
sS'next1title'
p2999
F0.5
sS'pre1page'
p3000
I0
sg158
I0
sg159
F1.0
sg160
I0
sa(dp3001
S'pre4pubnum'
p3002
I0
sS'next1page'
p3003
I0
sS'pre2keyword'
p3004
I0
sS'next3address'
p3005
I0
sS'pre3affiliation'
p3006
I0
sS'pre1email'
p3007
I0
sS'next3intro'
p3008
I0
sS'pre4page'
p3009
I0
sg10
I0
sg11
F1.0
sS'next4phone'
p3010
I0
sg13
S'"<web> http://sunsite.informatik.rwth-aachen.de/Publications/CEUR-WS/Vol-8/  </web>::line_number::11"'
p3011
sg15
I0
sg16
I0
sS'next1author'
p3012
I0
sg18
F0.014492753623188406
sg19
I0
sg20
F0.0
sg21
F0.0
sS'pre3note'
p3013
I0
sS'next3phone'
p3014
I0
sS'pre2note'
p3015
I0
sS'next1address'
p3016
I0
sS'pre1affiliation'
p3017
I0
sS'pre2address'
p3018
I0
sS'pre1abstract'
p3019
I0
sS'next3abstract'
p3020
I0
sS'pre2affiliation'
p3021
I0
sS'pre3title'
p3022
I0
sg32
I0
sS'pre3pubnum'
p3023
I0
sg34
I391
sS'pre3date'
p3024
I0
sS'next4title'
p3025
I0
sS'next3email'
p3026
I0
sg38
I0
sS'next1abstract'
p3027
I0
sS'pre2phone'
p3028
I0
sS'pre4affiliation'
p3029
I0
sS'pre2intro'
p3030
I0
sS'next2date'
p3031
I0
sS'pre3intro'
p3032
I0
sS'next2note'
p3033
I0
sS'next3title'
p3034
I0
sS'next3keyword'
p3035
I0
sS'pre2pubnum'
p3036
I0
sS'next4affiliation'
p3037
I0
sS'next2pubnum'
p3038
I0
sS'pre4note'
p3039
I0
sg52
I0
sg53
F0.0
sS'pre3web'
p3040
I0
sS'next4pubnum'
p3041
I0
sS'next4degree'
p3042
I0
sg57
I0
sS'pre3author'
p3043
I0
sS'pre4web'
p3044
I0
sS'next1note'
p3045
I0
sS'pre3abstract'
p3046
I0
sg62
F0.0
sS'pre1degree'
p3047
I0
sS'pre4abstract'
p3048
I0
sS'pre2degree'
p3049
I0
sS'next3degree'
p3050
I0
sS'next4abstract'
p3051
I0
sS'next1keyword'
p3052
I0
sS'pre3phone'
p3053
I0
sS'pre1note'
p3054
F0.5
sS'pre4keyword'
p3055
I0
sg72
I1
sS'pre4address'
p3056
F0.5
sS'pre2date'
p3057
I0
sS'next2title'
p3058
I0
sS'pre3address'
p3059
I0
sS'next1pubnum'
p3060
I0
sS'next2author'
p3061
I0
sS'pre2web'
p3062
I0
sS'next1email'
p3063
I0
sg81
S'web'
p3064
sS'pre1web'
p3065
I0
sS'pre4email'
p3066
I0
sS'pre1keyword'
p3067
I0
sS'pre4date'
p3068
I0
sS'next1affiliation'
p3069
I0
sS'next2degree'
p3070
I0
sS'pre1phone'
p3071
I0
sg90
S'11'
p3072
sg92
I0
sS'pre2abstract'
p3073
F0.5
sS'next1intro'
p3074
F0.5
sS'next2intro'
p3075
I0
sS'pre3degree'
p3076
I0
sS'pre1author'
p3077
I0
sS'next3page'
p3078
I0
sS'next3web'
p3079
I0
sS'next4date'
p3080
I0
sg101
F0.0
sg102
F0.0
sg103
I0
sS'pre2author'
p3081
I0
sg105
I1
sS'next2page'
p3082
I0
sS'next3pubnum'
p3083
I0
sS'next1degree'
p3084
I0
sS'pre1date'
p3085
I0
sS'pre4phone'
p3086
I0
sg111
I0
sS'next4intro'
p3087
I0
sg113
F0.0
sS'next2affiliation'
p3088
I0
sS'next4author'
p3089
I0
sS'next4note'
p3090
I0
sS'pre1pubnum'
p3091
I0
sg118
I0
sg119
I0
sS'next2address'
p3092
I0
sS'next2keyword'
p3093
I0
sS'next3note'
p3094
I0
sS'next3affiliation'
p3095
I0
sS'pre4degree'
p3096
I0
sS'next4email'
p3097
I0
sg126
F0.0
sS'next1web'
p3098
I0
sS'next2email'
p3099
I0
sS'next2web'
p3100
I0
sg130
F0.0
sS'pre3page'
p3101
I0
sS'next3author'
p3102
I0
sS'pre1address'
p3103
I0
sS'pre2email'
p3104
I0
sS'next4web'
p3105
I0
sS'pre4author'
p3106
I0
sS'pre1title'
p3107
I0
sS'next4page'
p3108
I0
sg139
I0
sS'next4keyword'
p3109
I0
sg141
I0
sS'next1phone'
p3110
I0
sS'pre4intro'
p3111
I0
sS'pre3keyword'
p3112
I0
sS'pre2title'
p3113
I0
sS'pre3email'
p3114
F0.5
sS'pre4title'
p3115
I0
sS'next3date'
p3116
I0
sS'next2phone'
p3117
I0
sS'next1date'
p3118
I0
sg151
F0.0
sS'pre1intro'
p3119
I0
sS'pre2page'
p3120
I0
sS'next2abstract'
p3121
I0
sS'next4address'
p3122
I0
sS'next1title'
p3123
I0
sS'pre1page'
p3124
I0
sg158
I0
sg159
F1.0
sg160
I0
sa(dp3125
S'pre4pubnum'
p3126
I0
sS'next1page'
p3127
I0
sS'pre2keyword'
p3128
I0
sS'next3address'
p3129
I0
sS'pre3affiliation'
p3130
I0
sS'pre1email'
p3131
I0
sS'next3intro'
p3132
I0
sS'pre4page'
p3133
I0
sg10
I1
sg11
F1.0
sS'next4phone'
p3134
I0
sg13
S'"<web>  http://www.cs.berkeley.edu/ marcel  </web>::line_number::3"'
p3135
sg15
I0
sg16
I0
sS'next1author'
p3136
I0
sg18
F0.0
sg19
I0
sg20
F0.0
sg21
F0.0
sS'pre3note'
p3137
I0
sS'next3phone'
p3138
I0
sS'pre2note'
p3139
I0
sS'next1address'
p3140
I0
sS'pre1affiliation'
p3141
F0.5
sS'pre2address'
p3142
I0
sS'pre1abstract'
p3143
I0
sS'next3abstract'
p3144
I0
sS'pre2affiliation'
p3145
I0
sS'pre3title'
p3146
F0.5
sg32
I0
sS'pre3pubnum'
p3147
I0
sg34
I406
sS'pre3date'
p3148
I0
sS'next4title'
p3149
I0
sS'next3email'
p3150
I0
sg38
I0
sS'next1abstract'
p3151
I0
sS'pre2phone'
p3152
I0
sS'pre4affiliation'
p3153
I0
sS'pre2intro'
p3154
I0
sS'next2date'
p3155
I0
sS'pre3intro'
p3156
I0
sS'next2note'
p3157
I0
sS'next3title'
p3158
I0
sS'next3keyword'
p3159
I0
sS'pre2pubnum'
p3160
I0
sS'next4affiliation'
p3161
I0
sS'next2pubnum'
p3162
I0
sS'pre4note'
p3163
I0
sg52
I0
sg53
F0.0
sS'pre3web'
p3164
I0
sS'next4pubnum'
p3165
I0
sS'next4degree'
p3166
I0
sg57
I0
sS'pre3author'
p3167
I0
sS'pre4web'
p3168
I0
sS'next1note'
p3169
I0
sS'pre3abstract'
p3170
I0
sg62
F0.0
sS'pre1degree'
p3171
I0
sS'pre4abstract'
p3172
I0
sS'pre2degree'
p3173
I0
sS'next3degree'
p3174
I0
sS'next4abstract'
p3175
I0
sS'next1keyword'
p3176
I0
sS'pre3phone'
p3177
I0
sS'pre1note'
p3178
I0
sS'pre4keyword'
p3179
I0
sg72
I0
sS'pre4address'
p3180
I0
sS'pre2date'
p3181
I0
sS'next2title'
p3182
I0
sS'pre3address'
p3183
I0
sS'next1pubnum'
p3184
I0
sS'next2author'
p3185
F0.5
sS'pre2web'
p3186
I0
sS'next1email'
p3187
F0.5
sg81
S'web'
p3188
sS'pre1web'
p3189
I0
sS'pre4email'
p3190
I0
sS'pre1keyword'
p3191
I0
sS'pre4date'
p3192
I0
sS'next1affiliation'
p3193
I0
sS'next2degree'
p3194
I0
sS'pre1phone'
p3195
I0
sg90
S'3'
p3196
sg92
I0
sS'pre2abstract'
p3197
I0
sS'next1intro'
p3198
I0
sS'next2intro'
p3199
I0
sS'pre3degree'
p3200
I0
sS'pre1author'
p3201
I0
sS'next3page'
p3202
I0
sS'next3web'
p3203
I0
sS'next4date'
p3204
I0
sg101
F0.0
sg102
F0.0
sg103
I0
sS'pre2author'
p3205
F0.5
sg105
I1
sS'next2page'
p3206
I0
sS'next3pubnum'
p3207
I0
sS'next1degree'
p3208
I0
sS'pre1date'
p3209
I0
sS'pre4phone'
p3210
I0
sg111
I0
sS'next4intro'
p3211
I0
sg113
F0.0
sS'next2affiliation'
p3212
I0
sS'next4author'
p3213
I0
sS'next4note'
p3214
I0
sS'pre1pubnum'
p3215
I0
sg118
I0
sg119
I0
sS'next2address'
p3216
I0
sS'next2keyword'
p3217
I0
sS'next3note'
p3218
I0
sS'next3affiliation'
p3219
F0.5
sS'pre4degree'
p3220
I0
sS'next4email'
p3221
I0
sg126
F0.0
sS'next1web'
p3222
I0
sS'next2email'
p3223
I0
sS'next2web'
p3224
I0
sg130
F0.0
sS'pre3page'
p3225
I0
sS'next3author'
p3226
I0
sS'pre1address'
p3227
I0
sS'pre2email'
p3228
I0
sS'next4web'
p3229
F0.5
sS'pre4author'
p3230
I0
sS'pre1title'
p3231
I0
sS'next4page'
p3232
I0
sg139
I0
sS'next4keyword'
p3233
I0
sg141
I0
sS'next1phone'
p3234
I0
sS'pre4intro'
p3235
I0
sS'pre3keyword'
p3236
I0
sS'pre2title'
p3237
I0
sS'pre3email'
p3238
I0
sS'pre4title'
p3239
I0
sS'next3date'
p3240
I0
sS'next2phone'
p3241
I0
sS'next1date'
p3242
I0
sg151
F0.0
sS'pre1intro'
p3243
I0
sS'pre2page'
p3244
I0
sS'next2abstract'
p3245
I0
sS'next4address'
p3246
I0
sS'next1title'
p3247
I0
sS'pre1page'
p3248
I0
sg158
I0
sg159
F1.0
sg160
I0
sa(dp3249
S'pre4pubnum'
p3250
I0
sS'next1page'
p3251
I0
sS'pre2keyword'
p3252
I0
sS'next3address'
p3253
I0
sS'pre3affiliation'
p3254
I0
sS'pre1email'
p3255
I0
sS'next3intro'
p3256
I0
sS'pre4page'
p3257
I0
sg10
I0
sg11
F0.5
sS'next4phone'
p3258
I0
sg13
S'"<web>  http://www.almaden.ibm.com/ cs/people/mohan  </web>::line_number::7"'
p3259
sg15
I0
sg16
I0
sS'next1author'
p3260
I0
sg18
F0.0
sg19
I0
sg20
F0.0
sg21
F0.0
sS'pre3note'
p3261
I0
sS'next3phone'
p3262
I0
sS'pre2note'
p3263
I0
sS'next1address'
p3264
I0
sS'pre1affiliation'
p3265
F0.5
sS'pre2address'
p3266
I0
sS'pre1abstract'
p3267
I0
sS'next3abstract'
p3268
I0
sS'pre2affiliation'
p3269
I0
sS'pre3title'
p3270
I0
sg32
I0
sS'pre3pubnum'
p3271
I0
sg34
I406
sS'pre3date'
p3272
I0
sS'next4title'
p3273
I0
sS'next3email'
p3274
I0
sg38
I0
sS'next1abstract'
p3275
I0
sS'pre2phone'
p3276
I0
sS'pre4affiliation'
p3277
I0
sS'pre2intro'
p3278
I0
sS'next2date'
p3279
I0
sS'pre3intro'
p3280
I0
sS'next2note'
p3281
I0
sS'next3title'
p3282
I0
sS'next3keyword'
p3283
I0
sS'pre2pubnum'
p3284
I0
sS'next4affiliation'
p3285
I0
sS'next2pubnum'
p3286
I0
sS'pre4note'
p3287
I0
sg52
I0
sg53
F0.0
sS'pre3web'
p3288
I0
sS'next4pubnum'
p3289
I0
sS'next4degree'
p3290
I0
sg57
I0
sS'pre3author'
p3291
I0
sS'pre4web'
p3292
F0.5
sS'next1note'
p3293
I0
sS'pre3abstract'
p3294
I0
sg62
F0.0
sS'pre1degree'
p3295
I0
sS'pre4abstract'
p3296
I0
sS'pre2degree'
p3297
I0
sS'next3degree'
p3298
I0
sS'next4abstract'
p3299
I0
sS'next1keyword'
p3300
I0
sS'pre3phone'
p3301
I0
sS'pre1note'
p3302
I0
sS'pre4keyword'
p3303
I0
sg72
I0
sS'pre4address'
p3304
I0
sS'pre2date'
p3305
I0
sS'next2title'
p3306
I0
sS'pre3address'
p3307
I0
sS'next1pubnum'
p3308
I0
sS'next2author'
p3309
F0.5
sS'pre2web'
p3310
I0
sS'next1email'
p3311
F0.5
sg81
S'web'
p3312
sS'pre1web'
p3313
I0
sS'pre4email'
p3314
I0
sS'pre1keyword'
p3315
I0
sS'pre4date'
p3316
I0
sS'next1affiliation'
p3317
I0
sS'next2degree'
p3318
I0
sS'pre1phone'
p3319
I0
sg90
g1715
sg92
I0
sS'pre2abstract'
p3320
I0
sS'next1intro'
p3321
I0
sS'next2intro'
p3322
I0
sS'pre3degree'
p3323
I0
sS'pre1author'
p3324
I0
sS'next3page'
p3325
I0
sS'next3web'
p3326
I0
sS'next4date'
p3327
I0
sg101
F0.5
sg102
F0.0
sg103
I0
sS'pre2author'
p3328
F0.5
sg105
I1
sS'next2page'
p3329
I0
sS'next3pubnum'
p3330
I0
sS'next1degree'
p3331
I0
sS'pre1date'
p3332
I0
sS'pre4phone'
p3333
I0
sg111
I0
sS'next4intro'
p3334
I0
sg113
F0.0
sS'next2affiliation'
p3335
I0
sS'next4author'
p3336
I0
sS'next4note'
p3337
I0
sS'pre1pubnum'
p3338
I0
sg118
I0
sg119
I0
sS'next2address'
p3339
I0
sS'next2keyword'
p3340
I0
sS'next3note'
p3341
I0
sS'next3affiliation'
p3342
F0.5
sS'pre4degree'
p3343
I0
sS'next4email'
p3344
I0
sg126
F0.0
sS'next1web'
p3345
I0
sS'next2email'
p3346
I0
sS'next2web'
p3347
I0
sg130
F0.0
sS'pre3page'
p3348
I0
sS'next3author'
p3349
I0
sS'pre1address'
p3350
I0
sS'pre2email'
p3351
I0
sS'next4web'
p3352
F0.5
sS'pre4author'
p3353
I0
sS'pre1title'
p3354
I0
sS'next4page'
p3355
I0
sg139
I0
sS'next4keyword'
p3356
I0
sg141
I0
sS'next1phone'
p3357
I0
sS'pre4intro'
p3358
I0
sS'pre3keyword'
p3359
I0
sS'pre2title'
p3360
I0
sS'pre3email'
p3361
F0.5
sS'pre4title'
p3362
I0
sS'next3date'
p3363
I0
sS'next2phone'
p3364
I0
sS'next1date'
p3365
I0
sg151
F0.0
sS'pre1intro'
p3366
I0
sS'pre2page'
p3367
I0
sS'next2abstract'
p3368
I0
sS'next4address'
p3369
I0
sS'next1title'
p3370
I0
sS'pre1page'
p3371
I0
sg158
I0
sg159
F1.0
sg160
I0
sa(dp3372
S'pre4pubnum'
p3373
I0
sS'next1page'
p3374
I0
sS'pre2keyword'
p3375
I0
sS'next3address'
p3376
I0
sS'pre3affiliation'
p3377
I0
sS'pre1email'
p3378
I0
sS'next3intro'
p3379
F0.5
sS'pre4page'
p3380
I0
sg10
I0
sg11
F0.5
sS'next4phone'
p3381
I0
sg13
S'"<web>  http://www.cs.berkeley.edu/ jmh  </web>::line_number::11"'
p3382
sg15
I0
sg16
I0
sS'next1author'
p3383
I0
sg18
F0.0
sg19
I0
sg20
F0.0
sg21
F0.0
sS'pre3note'
p3384
I0
sS'next3phone'
p3385
I0
sS'pre2note'
p3386
I0
sS'next1address'
p3387
I0
sS'pre1affiliation'
p3388
F0.5
sS'pre2address'
p3389
I0
sS'pre1abstract'
p3390
I0
sS'next3abstract'
p3391
I0
sS'pre2affiliation'
p3392
I0
sS'pre3title'
p3393
I0
sg32
I0
sS'pre3pubnum'
p3394
I0
sg34
I406
sS'pre3date'
p3395
I0
sS'next4title'
p3396
I0
sS'next3email'
p3397
I0
sg38
I0
sS'next1abstract'
p3398
I0
sS'pre2phone'
p3399
I0
sS'pre4affiliation'
p3400
I0
sS'pre2intro'
p3401
I0
sS'next2date'
p3402
I0
sS'pre3intro'
p3403
I0
sS'next2note'
p3404
I0
sS'next3title'
p3405
I0
sS'next3keyword'
p3406
I0
sS'pre2pubnum'
p3407
I0
sS'next4affiliation'
p3408
I0
sS'next2pubnum'
p3409
I0
sS'pre4note'
p3410
I0
sg52
I0
sg53
F0.0
sS'pre3web'
p3411
I0
sS'next4pubnum'
p3412
I0
sS'next4degree'
p3413
I0
sg57
I0
sS'pre3author'
p3414
I0
sS'pre4web'
p3415
F0.5
sS'next1note'
p3416
I0
sS'pre3abstract'
p3417
I0
sg62
F0.0
sS'pre1degree'
p3418
I0
sS'pre4abstract'
p3419
I0
sS'pre2degree'
p3420
I0
sS'next3degree'
p3421
I0
sS'next4abstract'
p3422
I0
sS'next1keyword'
p3423
I0
sS'pre3phone'
p3424
I0
sS'pre1note'
p3425
I0
sS'pre4keyword'
p3426
I0
sg72
I0
sS'pre4address'
p3427
I0
sS'pre2date'
p3428
I0
sS'next2title'
p3429
I0
sS'pre3address'
p3430
I0
sS'next1pubnum'
p3431
I0
sS'next2author'
p3432
I0
sS'pre2web'
p3433
I0
sS'next1email'
p3434
F0.5
sg81
S'web'
p3435
sS'pre1web'
p3436
I0
sS'pre4email'
p3437
I0
sS'pre1keyword'
p3438
I0
sS'pre4date'
p3439
I0
sS'next1affiliation'
p3440
I0
sS'next2degree'
p3441
I0
sS'pre1phone'
p3442
I0
sg90
S'11'
p3443
sg92
I0
sS'pre2abstract'
p3444
I0
sS'next1intro'
p3445
I0
sS'next2intro'
p3446
I0
sS'pre3degree'
p3447
I0
sS'pre1author'
p3448
I0
sS'next3page'
p3449
I0
sS'next3web'
p3450
I0
sS'next4date'
p3451
I0
sg101
F0.5
sg102
F0.0
sg103
I0
sS'pre2author'
p3452
F0.5
sg105
I1
sS'next2page'
p3453
I0
sS'next3pubnum'
p3454
I0
sS'next1degree'
p3455
I0
sS'pre1date'
p3456
I0
sS'pre4phone'
p3457
I0
sg111
I0
sS'next4intro'
p3458
I0
sg113
F0.0
sS'next2affiliation'
p3459
I0
sS'next4author'
p3460
I0
sS'next4note'
p3461
I0
sS'pre1pubnum'
p3462
I0
sg118
I0
sg119
I0
sS'next2address'
p3463
I0
sS'next2keyword'
p3464
I0
sS'next3note'
p3465
I0
sS'next3affiliation'
p3466
I0
sS'pre4degree'
p3467
I0
sS'next4email'
p3468
I0
sg126
F0.0
sS'next1web'
p3469
I0
sS'next2email'
p3470
I0
sS'next2web'
p3471
I0
sg130
F0.0
sS'pre3page'
p3472
I0
sS'next3author'
p3473
I0
sS'pre1address'
p3474
I0
sS'pre2email'
p3475
I0
sS'next4web'
p3476
I0
sS'pre4author'
p3477
I0
sS'pre1title'
p3478
I0
sS'next4page'
p3479
I0
sg139
I0
sS'next4keyword'
p3480
I0
sg141
I0
sS'next1phone'
p3481
I0
sS'pre4intro'
p3482
I0
sS'pre3keyword'
p3483
I0
sS'pre2title'
p3484
I0
sS'pre3email'
p3485
F0.5
sS'pre4title'
p3486
I0
sS'next3date'
p3487
I0
sS'next2phone'
p3488
I0
sS'next1date'
p3489
I0
sg151
F0.0
sS'pre1intro'
p3490
I0
sS'pre2page'
p3491
I0
sS'next2abstract'
p3492
F0.5
sS'next4address'
p3493
I0
sS'next1title'
p3494
I0
sS'pre1page'
p3495
I0
sg158
I0
sg159
F1.0
sg160
I0
sa(dp3496
S'pre4pubnum'
p3497
I0
sS'next1page'
p3498
F0.5
sS'pre2keyword'
p3499
I0
sS'next3address'
p3500
I0
sS'pre3affiliation'
p3501
I0
sS'pre1email'
p3502
I0
sS'next3intro'
p3503
I0
sS'pre4page'
p3504
I0
sg10
I0
sg11
F1.0
sS'next4phone'
p3505
I0
sg13
S'"<web> http://www.cs.umass.edu/~vfiroiu/  </web>::line_number::10"'
p3506
sg15
I0
sg16
I0
sS'next1author'
p3507
I0
sg18
F0.0
sg19
I0
sg20
F0.0
sg21
F0.0
sS'pre3note'
p3508
I0
sS'next3phone'
p3509
I0
sS'pre2note'
p3510
I0
sS'next1address'
p3511
I0
sS'pre1affiliation'
p3512
I0
sS'pre2address'
p3513
I0
sS'pre1abstract'
p3514
I0
sS'next3abstract'
p3515
I0
sS'pre2affiliation'
p3516
I0
sS'pre3title'
p3517
I0
sg32
I0
sS'pre3pubnum'
p3518
I0
sg34
I415
sS'pre3date'
p3519
F0.5
sS'next4title'
p3520
I0
sS'next3email'
p3521
I0
sg38
I0
sS'next1abstract'
p3522
I0
sS'pre2phone'
p3523
I0
sS'pre4affiliation'
p3524
I0
sS'pre2intro'
p3525
I0
sS'next2date'
p3526
I0
sS'pre3intro'
p3527
I0
sS'next2note'
p3528
I0
sS'next3title'
p3529
I0
sS'next3keyword'
p3530
I0
sS'pre2pubnum'
p3531
I0
sS'next4affiliation'
p3532
I0
sS'next2pubnum'
p3533
I0
sS'pre4note'
p3534
I0
sg52
I0
sg53
F0.0
sS'pre3web'
p3535
I0
sS'next4pubnum'
p3536
I0
sS'next4degree'
p3537
I0
sg57
I0
sS'pre3author'
p3538
I0
sS'pre4web'
p3539
I0
sS'next1note'
p3540
I0
sS'pre3abstract'
p3541
I0
sg62
F0.0
sS'pre1degree'
p3542
I0
sS'pre4abstract'
p3543
I0
sS'pre2degree'
p3544
I0
sS'next3degree'
p3545
I0
sS'next4abstract'
p3546
I0
sS'next1keyword'
p3547
I0
sS'pre3phone'
p3548
I0
sS'pre1note'
p3549
F0.5
sS'pre4keyword'
p3550
I0
sg72
I0
sS'pre4address'
p3551
F0.5
sS'pre2date'
p3552
I0
sS'next2title'
p3553
I0
sS'pre3address'
p3554
I0
sS'next1pubnum'
p3555
I0
sS'next2author'
p3556
I0
sS'pre2web'
p3557
I0
sS'next1email'
p3558
I0
sg81
S'web'
p3559
sS'pre1web'
p3560
I0
sS'pre4email'
p3561
I0
sS'pre1keyword'
p3562
I0
sS'pre4date'
p3563
I0
sS'next1affiliation'
p3564
I0
sS'next2degree'
p3565
I0
sS'pre1phone'
p3566
I0
sg90
S'10'
p3567
sg92
I0
sS'pre2abstract'
p3568
F0.5
sS'next1intro'
p3569
I0
sS'next2intro'
p3570
I0
sS'pre3degree'
p3571
I0
sS'pre1author'
p3572
I0
sS'next3page'
p3573
I0
sS'next3web'
p3574
I0
sS'next4date'
p3575
I0
sg101
F0.0
sg102
F0.0
sg103
I0
sS'pre2author'
p3576
I0
sg105
I1
sS'next2page'
p3577
I0
sS'next3pubnum'
p3578
I0
sS'next1degree'
p3579
I0
sS'pre1date'
p3580
I0
sS'pre4phone'
p3581
I0
sg111
I0
sS'next4intro'
p3582
I0
sg113
F0.0
sS'next2affiliation'
p3583
I0
sS'next4author'
p3584
I0
sS'next4note'
p3585
I0
sS'pre1pubnum'
p3586
I0
sg118
I0
sg119
I0
sS'next2address'
p3587
I0
sS'next2keyword'
p3588
I0
sS'next3note'
p3589
I0
sS'next3affiliation'
p3590
I0
sS'pre4degree'
p3591
I0
sS'next4email'
p3592
I0
sg126
F0.0
sS'next1web'
p3593
I0
sS'next2email'
p3594
I0
sS'next2web'
p3595
I0
sg130
F0.0
sS'pre3page'
p3596
I0
sS'next3author'
p3597
I0
sS'pre1address'
p3598
I0
sS'pre2email'
p3599
I0
sS'next4web'
p3600
I0
sS'pre4author'
p3601
I0
sS'pre1title'
p3602
I0
sS'next4page'
p3603
I0
sg139
I0
sS'next4keyword'
p3604
I0
sg141
I0
sS'next1phone'
p3605
I0
sS'pre4intro'
p3606
I0
sS'pre3keyword'
p3607
I0
sS'pre2title'
p3608
I0
sS'pre3email'
p3609
I0
sS'pre4title'
p3610
I0
sS'next3date'
p3611
I0
sS'next2phone'
p3612
I0
sS'next1date'
p3613
I0
sg151
F0.0
sS'pre1intro'
p3614
I0
sS'pre2page'
p3615
I0
sS'next2abstract'
p3616
I0
sS'next4address'
p3617
I0
sS'next1title'
p3618
I0
sS'pre1page'
p3619
I0
sg158
I0
sg159
F1.0
sg160
I0
sa(dp3620
S'pre4pubnum'
p3621
I0
sS'next1page'
p3622
I0
sS'pre2keyword'
p3623
I0
sS'next3address'
p3624
F0.5
sS'pre3affiliation'
p3625
F0.5
sS'pre1email'
p3626
F0.5
sS'next3intro'
p3627
I0
sS'pre4page'
p3628
I0
sg10
I0
sg11
F0.5
sS'next4phone'
p3629
I0
sg13
S'"<web> http://www-cs faculty.stanford.edu/~koza/  </web>::line_number::5"'
p3630
sg15
I0
sg16
I0
sS'next1author'
p3631
F0.5
sg18
F0.0
sg19
I0
sg20
F0.0
sg21
F0.0
sS'pre3note'
p3632
I0
sS'next3phone'
p3633
I0
sS'pre2note'
p3634
I0
sS'next1address'
p3635
I0
sS'pre1affiliation'
p3636
I0
sS'pre2address'
p3637
F0.5
sS'pre1abstract'
p3638
I0
sS'next3abstract'
p3639
I0
sS'pre2affiliation'
p3640
I0
sS'pre3title'
p3641
I0
sg32
I0
sS'pre3pubnum'
p3642
I0
sg34
I417
sS'pre3date'
p3643
I0
sS'next4title'
p3644
I0
sS'next3email'
p3645
I0
sg38
I0
sS'next1abstract'
p3646
I0
sS'pre2phone'
p3647
I0
sS'pre4affiliation'
p3648
I0
sS'pre2intro'
p3649
I0
sS'next2date'
p3650
I0
sS'pre3intro'
p3651
I0
sS'next2note'
p3652
I0
sS'next3title'
p3653
I0
sS'next3keyword'
p3654
I0
sS'pre2pubnum'
p3655
I0
sS'next4affiliation'
p3656
I0
sS'next2pubnum'
p3657
I0
sS'pre4note'
p3658
I0
sg52
I0
sg53
F0.0
sS'pre3web'
p3659
I0
sS'next4pubnum'
p3660
I0
sS'next4degree'
p3661
I0
sg57
I0
sS'pre3author'
p3662
I0
sS'pre4web'
p3663
I0
sS'next1note'
p3664
I0
sS'pre3abstract'
p3665
I0
sg62
F0.0
sS'pre1degree'
p3666
I0
sS'pre4abstract'
p3667
I0
sS'pre2degree'
p3668
I0
sS'next3degree'
p3669
I0
sS'next4abstract'
p3670
I0
sS'next1keyword'
p3671
I0
sS'pre3phone'
p3672
I0
sS'pre1note'
p3673
I0
sS'pre4keyword'
p3674
I0
sg72
I0
sS'pre4address'
p3675
I0
sS'pre2date'
p3676
I0
sS'next2title'
p3677
I0
sS'pre3address'
p3678
I0
sS'next1pubnum'
p3679
I0
sS'next2author'
p3680
I0
sS'pre2web'
p3681
I0
sS'next1email'
p3682
I0
sg81
S'web'
p3683
sS'pre1web'
p3684
I0
sS'pre4email'
p3685
I0
sS'pre1keyword'
p3686
I0
sS'pre4date'
p3687
I0
sS'next1affiliation'
p3688
I0
sS'next2degree'
p3689
I0
sS'pre1phone'
p3690
I0
sg90
g232
sg92
I0
sS'pre2abstract'
p3691
I0
sS'next1intro'
p3692
I0
sS'next2intro'
p3693
I0
sS'pre3degree'
p3694
I0
sS'pre1author'
p3695
I0
sS'next3page'
p3696
I0
sS'next3web'
p3697
I0
sS'next4date'
p3698
I0
sg101
F0.5
sg102
F0.0
sg103
I0
sS'pre2author'
p3699
I0
sg105
I1
sS'next2page'
p3700
I0
sS'next3pubnum'
p3701
I0
sS'next1degree'
p3702
I0
sS'pre1date'
p3703
I0
sS'pre4phone'
p3704
I0
sg111
I0
sS'next4intro'
p3705
I0
sg113
F0.0
sS'next2affiliation'
p3706
F0.5
sS'next4author'
p3707
I0
sS'next4note'
p3708
I0
sS'pre1pubnum'
p3709
I0
sg118
I0
sg119
I0
sS'next2address'
p3710
I0
sS'next2keyword'
p3711
I0
sS'next3note'
p3712
I0
sS'next3affiliation'
p3713
I0
sS'pre4degree'
p3714
I0
sS'next4email'
p3715
F0.5
sg126
F0.0
sS'next1web'
p3716
I0
sS'next2email'
p3717
I0
sS'next2web'
p3718
I0
sg130
F0.0
sS'pre3page'
p3719
I0
sS'next3author'
p3720
I0
sS'pre1address'
p3721
I0
sS'pre2email'
p3722
I0
sS'next4web'
p3723
I0
sS'pre4author'
p3724
F0.5
sS'pre1title'
p3725
I0
sS'next4page'
p3726
I0
sg139
I0
sS'next4keyword'
p3727
I0
sg141
I0
sS'next1phone'
p3728
I0
sS'pre4intro'
p3729
I0
sS'pre3keyword'
p3730
I0
sS'pre2title'
p3731
I0
sS'pre3email'
p3732
I0
sS'pre4title'
p3733
I0
sS'next3date'
p3734
I0
sS'next2phone'
p3735
I0
sS'next1date'
p3736
I0
sg151
F0.0
sS'pre1intro'
p3737
I0
sS'pre2page'
p3738
I0
sS'next2abstract'
p3739
I0
sS'next4address'
p3740
I0
sS'next1title'
p3741
I0
sS'pre1page'
p3742
I0
sg158
I0
sg159
F1.0
sg160
I0
sa(dp3743
S'pre4pubnum'
p3744
I0
sS'next1page'
p3745
I0
sS'pre2keyword'
p3746
I0
sS'next3address'
p3747
I0
sS'pre3affiliation'
p3748
I0
sS'pre1email'
p3749
I0
sS'next3intro'
p3750
I0
sS'pre4page'
p3751
I0
sg10
I0
sg11
F0.5
sS'next4phone'
p3752
I0
sg13
S'"<web> URL: http://www.cam.sri.com/tr/crc033/paper.ps.Z </web>::line_number::0"'
p3753
sg15
I0
sg16
I0
sS'next1author'
p3754
I0
sg18
F0.0625
sg19
I0
sg20
F0.0
sg21
F0.0
sS'pre3note'
p3755
I0
sS'next3phone'
p3756
I0
sS'pre2note'
p3757
I0
sS'next1address'
p3758
I0
sS'pre1affiliation'
p3759
I0
sS'pre2address'
p3760
I0
sS'pre1abstract'
p3761
I0
sS'next3abstract'
p3762
I0
sS'pre2affiliation'
p3763
I0
sS'pre3title'
p3764
I0
sg32
I0
sS'pre3pubnum'
p3765
I0
sg34
I455
sS'pre3date'
p3766
I0
sS'next4title'
p3767
I0
sS'next3email'
p3768
I0
sg38
I0
sS'next1abstract'
p3769
I0
sS'pre2phone'
p3770
I0
sS'pre4affiliation'
p3771
I0
sS'pre2intro'
p3772
I0
sS'next2date'
p3773
I0
sS'pre3intro'
p3774
I0
sS'next2note'
p3775
I0
sS'next3title'
p3776
I0
sS'next3keyword'
p3777
I0
sS'pre2pubnum'
p3778
I0
sS'next4affiliation'
p3779
F0.5
sS'next2pubnum'
p3780
I0
sS'pre4note'
p3781
I0
sg52
I0
sg53
F0.0
sS'pre3web'
p3782
I0
sS'next4pubnum'
p3783
I0
sS'next4degree'
p3784
I0
sg57
I0
sS'pre3author'
p3785
I0
sS'pre4web'
p3786
I0
sS'next1note'
p3787
F0.5
sS'pre3abstract'
p3788
I0
sg62
F0.0
sS'pre1degree'
p3789
I0
sS'pre4abstract'
p3790
I0
sS'pre2degree'
p3791
I0
sS'next3degree'
p3792
I0
sS'next4abstract'
p3793
I0
sS'next1keyword'
p3794
I0
sS'pre3phone'
p3795
I0
sS'pre1note'
p3796
I0
sS'pre4keyword'
p3797
I0
sg72
I0
sS'pre4address'
p3798
I0
sS'pre2date'
p3799
I0
sS'next2title'
p3800
F0.5
sS'pre3address'
p3801
I0
sS'next1pubnum'
p3802
I0
sS'next2author'
p3803
I0
sS'pre2web'
p3804
I0
sS'next1email'
p3805
I0
sg81
S'web'
p3806
sS'pre1web'
p3807
I0
sS'pre4email'
p3808
I0
sS'pre1keyword'
p3809
I0
sS'pre4date'
p3810
I0
sS'next1affiliation'
p3811
I0
sS'next2degree'
p3812
I0
sS'pre1phone'
p3813
I0
sg90
S'0'
p3814
sg92
I0
sS'pre2abstract'
p3815
I0
sS'next1intro'
p3816
I0
sS'next2intro'
p3817
I0
sS'pre3degree'
p3818
I0
sS'pre1author'
p3819
I0
sS'next3page'
p3820
I0
sS'next3web'
p3821
I0
sS'next4date'
p3822
I0
sg101
F0.5
sg102
F0.0
sg103
I0
sS'pre2author'
p3823
I0
sg105
I1
sS'next2page'
p3824
I0
sS'next3pubnum'
p3825
I0
sS'next1degree'
p3826
I0
sS'pre1date'
p3827
I0
sS'pre4phone'
p3828
I0
sg111
I0
sS'next4intro'
p3829
I0
sg113
F0.0
sS'next2affiliation'
p3830
I0
sS'next4author'
p3831
I0
sS'next4note'
p3832
I0
sS'pre1pubnum'
p3833
I0
sg118
I0
sg119
I0
sS'next2address'
p3834
I0
sS'next2keyword'
p3835
I0
sS'next3note'
p3836
I0
sS'next3affiliation'
p3837
I0
sS'pre4degree'
p3838
I0
sS'next4email'
p3839
I0
sg126
F0.0
sS'next1web'
p3840
I0
sS'next2email'
p3841
I0
sS'next2web'
p3842
I0
sg130
F0.0
sS'pre3page'
p3843
I0
sS'next3author'
p3844
F0.5
sS'pre1address'
p3845
I0
sS'pre2email'
p3846
I0
sS'next4web'
p3847
I0
sS'pre4author'
p3848
I0
sS'pre1title'
p3849
I0
sS'next4page'
p3850
I0
sg139
I0
sS'next4keyword'
p3851
I0
sg141
I0
sS'next1phone'
p3852
I0
sS'pre4intro'
p3853
I0
sS'pre3keyword'
p3854
I0
sS'pre2title'
p3855
I0
sS'pre3email'
p3856
I0
sS'pre4title'
p3857
I0
sS'next3date'
p3858
I0
sS'next2phone'
p3859
I0
sS'next1date'
p3860
I0
sg151
F0.0
sS'pre1intro'
p3861
I0
sS'pre2page'
p3862
I0
sS'next2abstract'
p3863
I0
sS'next4address'
p3864
I0
sS'next1title'
p3865
I0
sS'pre1page'
p3866
I0
sg158
I0
sg159
F1.0
sg160
I0
sa(dp3867
S'pre4pubnum'
p3868
I0
sS'next1page'
p3869
I0
sS'pre2keyword'
p3870
I0
sS'next3address'
p3871
I0
sS'pre3affiliation'
p3872
I0
sS'pre1email'
p3873
I0
sS'next3intro'
p3874
I0
sS'pre4page'
p3875
I0
sg10
I0
sg11
F0.5
sS'next4phone'
p3876
I0
sg13
S'"<web> URL: http://www.cam.sri.com/tr/crc044/paper.ps.ZARPA </web>::line_number::0"'
p3877
sg15
I0
sg16
I0
sS'next1author'
p3878
I0
sg18
F0.057692307692307696
sg19
I0
sg20
F0.0
sg21
F0.0
sS'pre3note'
p3879
I0
sS'next3phone'
p3880
I0
sS'pre2note'
p3881
I0
sS'next1address'
p3882
I0
sS'pre1affiliation'
p3883
I0
sS'pre2address'
p3884
I0
sS'pre1abstract'
p3885
I0
sS'next3abstract'
p3886
I0
sS'pre2affiliation'
p3887
I0
sS'pre3title'
p3888
I0
sg32
I0
sS'pre3pubnum'
p3889
I0
sg34
I456
sS'pre3date'
p3890
I0
sS'next4title'
p3891
I0
sS'next3email'
p3892
I0
sg38
I0
sS'next1abstract'
p3893
I0
sS'pre2phone'
p3894
I0
sS'pre4affiliation'
p3895
I0
sS'pre2intro'
p3896
I0
sS'next2date'
p3897
I0
sS'pre3intro'
p3898
I0
sS'next2note'
p3899
I0
sS'next3title'
p3900
I0
sS'next3keyword'
p3901
I0
sS'pre2pubnum'
p3902
I0
sS'next4affiliation'
p3903
F0.5
sS'next2pubnum'
p3904
I0
sS'pre4note'
p3905
I0
sg52
I0
sg53
F0.0
sS'pre3web'
p3906
I0
sS'next4pubnum'
p3907
I0
sS'next4degree'
p3908
I0
sg57
I0
sS'pre3author'
p3909
I0
sS'pre4web'
p3910
I0
sS'next1note'
p3911
F0.5
sS'pre3abstract'
p3912
I0
sg62
F0.0
sS'pre1degree'
p3913
I0
sS'pre4abstract'
p3914
I0
sS'pre2degree'
p3915
I0
sS'next3degree'
p3916
I0
sS'next4abstract'
p3917
I0
sS'next1keyword'
p3918
I0
sS'pre3phone'
p3919
I0
sS'pre1note'
p3920
I0
sS'pre4keyword'
p3921
I0
sg72
I0
sS'pre4address'
p3922
I0
sS'pre2date'
p3923
I0
sS'next2title'
p3924
F0.5
sS'pre3address'
p3925
I0
sS'next1pubnum'
p3926
I0
sS'next2author'
p3927
I0
sS'pre2web'
p3928
I0
sS'next1email'
p3929
I0
sg81
S'web'
p3930
sS'pre1web'
p3931
I0
sS'pre4email'
p3932
I0
sS'pre1keyword'
p3933
I0
sS'pre4date'
p3934
I0
sS'next1affiliation'
p3935
I0
sS'next2degree'
p3936
I0
sS'pre1phone'
p3937
I0
sg90
g3814
sg92
I0
sS'pre2abstract'
p3938
I0
sS'next1intro'
p3939
I0
sS'next2intro'
p3940
I0
sS'pre3degree'
p3941
I0
sS'pre1author'
p3942
I0
sS'next3page'
p3943
I0
sS'next3web'
p3944
I0
sS'next4date'
p3945
I0
sg101
F0.5
sg102
F0.0
sg103
I0
sS'pre2author'
p3946
I0
sg105
I1
sS'next2page'
p3947
I0
sS'next3pubnum'
p3948
I0
sS'next1degree'
p3949
I0
sS'pre1date'
p3950
I0
sS'pre4phone'
p3951
I0
sg111
I0
sS'next4intro'
p3952
I0
sg113
F0.0
sS'next2affiliation'
p3953
I0
sS'next4author'
p3954
I0
sS'next4note'
p3955
I0
sS'pre1pubnum'
p3956
I0
sg118
I0
sg119
I0
sS'next2address'
p3957
I0
sS'next2keyword'
p3958
I0
sS'next3note'
p3959
I0
sS'next3affiliation'
p3960
I0
sS'pre4degree'
p3961
I0
sS'next4email'
p3962
I0
sg126
F0.0
sS'next1web'
p3963
I0
sS'next2email'
p3964
I0
sS'next2web'
p3965
I0
sg130
F0.0
sS'pre3page'
p3966
I0
sS'next3author'
p3967
F0.5
sS'pre1address'
p3968
I0
sS'pre2email'
p3969
I0
sS'next4web'
p3970
I0
sS'pre4author'
p3971
I0
sS'pre1title'
p3972
I0
sS'next4page'
p3973
I0
sg139
I0
sS'next4keyword'
p3974
I0
sg141
I0
sS'next1phone'
p3975
I0
sS'pre4intro'
p3976
I0
sS'pre3keyword'
p3977
I0
sS'pre2title'
p3978
I0
sS'pre3email'
p3979
I0
sS'pre4title'
p3980
I0
sS'next3date'
p3981
I0
sS'next2phone'
p3982
I0
sS'next1date'
p3983
I0
sg151
F0.0
sS'pre1intro'
p3984
I0
sS'pre2page'
p3985
I0
sS'next2abstract'
p3986
I0
sS'next4address'
p3987
I0
sS'next1title'
p3988
I0
sS'pre1page'
p3989
I0
sg158
I0
sg159
F1.0
sg160
I0
sa(dp3990
S'pre4pubnum'
p3991
I0
sS'next1page'
p3992
I0
sS'pre2keyword'
p3993
I0
sS'next3address'
p3994
I0
sS'pre3affiliation'
p3995
I0
sS'pre1email'
p3996
I0
sS'next3intro'
p3997
I0
sS'pre4page'
p3998
I0
sg10
I0
sg11
F1.0
sS'next4phone'
p3999
I0
sg13
S'"<web> (http://www.myri.com)  </web>::line_number::8"'
p4000
sg15
I0
sg16
I0
sS'next1author'
p4001
I0
sg18
F0.0
sg19
I0
sg20
F0.0
sg21
F0.0
sS'pre3note'
p4002
I0
sS'next3phone'
p4003
I0
sS'pre2note'
p4004
I0
sS'next1address'
p4005
I0
sS'pre1affiliation'
p4006
I0
sS'pre2address'
p4007
I0
sS'pre1abstract'
p4008
I0
sS'next3abstract'
p4009
I0
sS'pre2affiliation'
p4010
F0.5
sS'pre3title'
p4011
I0
sg32
I0
sS'pre3pubnum'
p4012
I0
sg34
I477
sS'pre3date'
p4013
I0
sS'next4title'
p4014
I0
sS'next3email'
p4015
I0
sg38
I0
sS'next1abstract'
p4016
F0.5
sS'pre2phone'
p4017
I0
sS'pre4affiliation'
p4018
I0
sS'pre2intro'
p4019
I0
sS'next2date'
p4020
I0
sS'pre3intro'
p4021
I0
sS'next2note'
p4022
I0
sS'next3title'
p4023
I0
sS'next3keyword'
p4024
I0
sS'pre2pubnum'
p4025
I0
sS'next4affiliation'
p4026
I0
sS'next2pubnum'
p4027
I0
sS'pre4note'
p4028
F0.5
sg52
I0
sg53
F0.0
sS'pre3web'
p4029
I0
sS'next4pubnum'
p4030
I0
sS'next4degree'
p4031
I0
sg57
I0
sS'pre3author'
p4032
F0.5
sS'pre4web'
p4033
I0
sS'next1note'
p4034
I0
sS'pre3abstract'
p4035
I0
sg62
F0.0
sS'pre1degree'
p4036
I0
sS'pre4abstract'
p4037
I0
sS'pre2degree'
p4038
I0
sS'next3degree'
p4039
I0
sS'next4abstract'
p4040
I0
sS'next1keyword'
p4041
I0
sS'pre3phone'
p4042
I0
sS'pre1note'
p4043
I0
sS'pre4keyword'
p4044
I0
sg72
I0
sS'pre4address'
p4045
I0
sS'pre2date'
p4046
I0
sS'next2title'
p4047
I0
sS'pre3address'
p4048
I0
sS'next1pubnum'
p4049
I0
sS'next2author'
p4050
I0
sS'pre2web'
p4051
I0
sS'next1email'
p4052
I0
sg81
S'web'
p4053
sS'pre1web'
p4054
I0
sS'pre4email'
p4055
I0
sS'pre1keyword'
p4056
I0
sS'pre4date'
p4057
I0
sS'next1affiliation'
p4058
I0
sS'next2degree'
p4059
I0
sS'pre1phone'
p4060
I0
sg90
g1343
sg92
I0
sS'pre2abstract'
p4061
I0
sS'next1intro'
p4062
I0
sS'next2intro'
p4063
I0
sS'pre3degree'
p4064
I0
sS'pre1author'
p4065
I0
sS'next3page'
p4066
I0
sS'next3web'
p4067
I0
sS'next4date'
p4068
I0
sg101
F0.0
sg102
F0.0
sg103
I0
sS'pre2author'
p4069
I0
sg105
I1
sS'next2page'
p4070
F0.5
sS'next3pubnum'
p4071
I0
sS'next1degree'
p4072
I0
sS'pre1date'
p4073
I0
sS'pre4phone'
p4074
I0
sg111
I0
sS'next4intro'
p4075
I0
sg113
F0.0
sS'next2affiliation'
p4076
I0
sS'next4author'
p4077
I0
sS'next4note'
p4078
I0
sS'pre1pubnum'
p4079
I0
sg118
I0
sg119
I0
sS'next2address'
p4080
I0
sS'next2keyword'
p4081
I0
sS'next3note'
p4082
I0
sS'next3affiliation'
p4083
I0
sS'pre4degree'
p4084
I0
sS'next4email'
p4085
I0
sg126
F0.0
sS'next1web'
p4086
I0
sS'next2email'
p4087
I0
sS'next2web'
p4088
I0
sg130
F0.0
sS'pre3page'
p4089
I0
sS'next3author'
p4090
I0
sS'pre1address'
p4091
F0.5
sS'pre2email'
p4092
I0
sS'next4web'
p4093
I0
sS'pre4author'
p4094
I0
sS'pre1title'
p4095
I0
sS'next4page'
p4096
I0
sg139
I0
sS'next4keyword'
p4097
I0
sg141
I0
sS'next1phone'
p4098
I0
sS'pre4intro'
p4099
I0
sS'pre3keyword'
p4100
I0
sS'pre2title'
p4101
I0
sS'pre3email'
p4102
I0
sS'pre4title'
p4103
I0
sS'next3date'
p4104
I0
sS'next2phone'
p4105
I0
sS'next1date'
p4106
I0
sg151
F0.0
sS'pre1intro'
p4107
I0
sS'pre2page'
p4108
I0
sS'next2abstract'
p4109
I0
sS'next4address'
p4110
I0
sS'next1title'
p4111
I0
sS'pre1page'
p4112
I0
sg158
I0
sg159
F1.0
sg160
I0
sa(dp4113
S'pre4pubnum'
p4114
I0
sS'next1page'
p4115
F0.5
sS'pre2keyword'
p4116
I0
sS'next3address'
p4117
I0
sS'pre3affiliation'
p4118
I0
sS'pre1email'
p4119
I0
sS'next3intro'
p4120
I0
sS'pre4page'
p4121
I0
sg10
I0
sg11
F1.0
sS'next4phone'
p4122
I0
sg13
S'"<web> http://www.cs.berkeley.edu/~debevec/Research/  </web>::line_number::12"'
p4123
sg15
I0
sg16
I0
sS'next1author'
p4124
I0
sg18
F0.0
sg19
I0
sg20
F0.0
sg21
F0.0
sS'pre3note'
p4125
I0
sS'next3phone'
p4126
I0
sS'pre2note'
p4127
I0
sS'next1address'
p4128
I0
sS'pre1affiliation'
p4129
I0
sS'pre2address'
p4130
I0
sS'pre1abstract'
p4131
I0
sS'next3abstract'
p4132
I0
sS'pre2affiliation'
p4133
I0
sS'pre3title'
p4134
I0
sg32
I0
sS'pre3pubnum'
p4135
I0
sg34
I486
sS'pre3date'
p4136
I0
sS'next4title'
p4137
I0
sS'next3email'
p4138
I0
sg38
I0
sS'next1abstract'
p4139
I0
sS'pre2phone'
p4140
I0
sS'pre4affiliation'
p4141
I0
sS'pre2intro'
p4142
I0
sS'next2date'
p4143
I0
sS'pre3intro'
p4144
I0
sS'next2note'
p4145
I0
sS'next3title'
p4146
I0
sS'next3keyword'
p4147
I0
sS'pre2pubnum'
p4148
I0
sS'next4affiliation'
p4149
I0
sS'next2pubnum'
p4150
I0
sS'pre4note'
p4151
I0
sg52
I0
sg53
F0.0
sS'pre3web'
p4152
I0
sS'next4pubnum'
p4153
I0
sS'next4degree'
p4154
I0
sg57
I0
sS'pre3author'
p4155
I0
sS'pre4web'
p4156
I0
sS'next1note'
p4157
I0
sS'pre3abstract'
p4158
I0
sg62
F0.0
sS'pre1degree'
p4159
I0
sS'pre4abstract'
p4160
I0
sS'pre2degree'
p4161
I0
sS'next3degree'
p4162
I0
sS'next4abstract'
p4163
I0
sS'next1keyword'
p4164
I0
sS'pre3phone'
p4165
F0.5
sS'pre1note'
p4166
F0.5
sS'pre4keyword'
p4167
I0
sg72
I0
sS'pre4address'
p4168
F0.5
sS'pre2date'
p4169
I0
sS'next2title'
p4170
I0
sS'pre3address'
p4171
I0
sS'next1pubnum'
p4172
I0
sS'next2author'
p4173
I0
sS'pre2web'
p4174
I0
sS'next1email'
p4175
I0
sg81
S'web'
p4176
sS'pre1web'
p4177
I0
sS'pre4email'
p4178
I0
sS'pre1keyword'
p4179
I0
sS'pre4date'
p4180
I0
sS'next1affiliation'
p4181
I0
sS'next2degree'
p4182
I0
sS'pre1phone'
p4183
I0
sg90
S'12'
p4184
sg92
I0
sS'pre2abstract'
p4185
F0.5
sS'next1intro'
p4186
I0
sS'next2intro'
p4187
I0
sS'pre3degree'
p4188
I0
sS'pre1author'
p4189
I0
sS'next3page'
p4190
I0
sS'next3web'
p4191
I0
sS'next4date'
p4192
I0
sg101
F0.0
sg102
F0.0
sg103
I0
sS'pre2author'
p4193
I0
sg105
I1
sS'next2page'
p4194
I0
sS'next3pubnum'
p4195
I0
sS'next1degree'
p4196
I0
sS'pre1date'
p4197
I0
sS'pre4phone'
p4198
I0
sg111
I0
sS'next4intro'
p4199
I0
sg113
F0.0
sS'next2affiliation'
p4200
I0
sS'next4author'
p4201
I0
sS'next4note'
p4202
I0
sS'pre1pubnum'
p4203
I0
sg118
I0
sg119
I0
sS'next2address'
p4204
I0
sS'next2keyword'
p4205
I0
sS'next3note'
p4206
I0
sS'next3affiliation'
p4207
I0
sS'pre4degree'
p4208
I0
sS'next4email'
p4209
I0
sg126
F0.0
sS'next1web'
p4210
I0
sS'next2email'
p4211
I0
sS'next2web'
p4212
I0
sg130
F0.0
sS'pre3page'
p4213
I0
sS'next3author'
p4214
I0
sS'pre1address'
p4215
I0
sS'pre2email'
p4216
I0
sS'next4web'
p4217
I0
sS'pre4author'
p4218
I0
sS'pre1title'
p4219
I0
sS'next4page'
p4220
I0
sg139
I0
sS'next4keyword'
p4221
I0
sg141
I0
sS'next1phone'
p4222
I0
sS'pre4intro'
p4223
I0
sS'pre3keyword'
p4224
I0
sS'pre2title'
p4225
I0
sS'pre3email'
p4226
I0
sS'pre4title'
p4227
I0
sS'next3date'
p4228
I0
sS'next2phone'
p4229
I0
sS'next1date'
p4230
I0
sg151
F0.0
sS'pre1intro'
p4231
I0
sS'pre2page'
p4232
I0
sS'next2abstract'
p4233
I0
sS'next4address'
p4234
I0
sS'next1title'
p4235
I0
sS'pre1page'
p4236
I0
sg158
I0
sg159
F1.0
sg160
I0
sa(dp4237
S'pre4pubnum'
p4238
I0
sS'next1page'
p4239
I0
sS'pre2keyword'
p4240
I0
sS'next3address'
p4241
I0
sS'pre3affiliation'
p4242
I0
sS'pre1email'
p4243
F0.5
sS'next3intro'
p4244
I0
sS'pre4page'
p4245
I0
sg10
I0
sg11
F1.0
sS'next4phone'
p4246
I0
sg13
S'"<web> http://theory.stanford.edu/people/jcm/home.html </web>::line_number::9"'
p4247
sg15
I0
sg16
I0
sS'next1author'
p4248
I0
sg18
F0.0
sg19
I0
sg20
F0.0
sg21
F0.0
sS'pre3note'
p4249
I0
sS'next3phone'
p4250
I0
sS'pre2note'
p4251
F0.5
sS'next1address'
p4252
I0
sS'pre1affiliation'
p4253
I0
sS'pre2address'
p4254
I0
sS'pre1abstract'
p4255
I0
sS'next3abstract'
p4256
I0
sS'pre2affiliation'
p4257
I0
sS'pre3title'
p4258
I0
sg32
I0
sS'pre3pubnum'
p4259
I0
sg34
I501
sS'pre3date'
p4260
I0
sS'next4title'
p4261
I0
sS'next3email'
p4262
I0
sg38
I0
sS'next1abstract'
p4263
I0
sS'pre2phone'
p4264
I0
sS'pre4affiliation'
p4265
F0.5
sS'pre2intro'
p4266
I0
sS'next2date'
p4267
I0
sS'pre3intro'
p4268
I0
sS'next2note'
p4269
I0
sS'next3title'
p4270
I0
sS'next3keyword'
p4271
I0
sS'pre2pubnum'
p4272
I0
sS'next4affiliation'
p4273
I0
sS'next2pubnum'
p4274
I0
sS'pre4note'
p4275
I0
sg52
I0
sg53
F0.0
sS'pre3web'
p4276
I0
sS'next4pubnum'
p4277
I0
sS'next4degree'
p4278
I0
sg57
I0
sS'pre3author'
p4279
I0
sS'pre4web'
p4280
I0
sS'next1note'
p4281
I0
sS'pre3abstract'
p4282
I0
sg62
F0.0
sS'pre1degree'
p4283
I0
sS'pre4abstract'
p4284
I0
sS'pre2degree'
p4285
I0
sS'next3degree'
p4286
I0
sS'next4abstract'
p4287
I0
sS'next1keyword'
p4288
I0
sS'pre3phone'
p4289
I0
sS'pre1note'
p4290
I0
sS'pre4keyword'
p4291
I0
sg72
I0
sS'pre4address'
p4292
I0
sS'pre2date'
p4293
I0
sS'next2title'
p4294
I0
sS'pre3address'
p4295
F0.5
sS'next1pubnum'
p4296
I0
sS'next2author'
p4297
I0
sS'pre2web'
p4298
I0
sS'next1email'
p4299
I0
sg81
S'web'
p4300
sS'pre1web'
p4301
I0
sS'pre4email'
p4302
I0
sS'pre1keyword'
p4303
I0
sS'pre4date'
p4304
I0
sS'next1affiliation'
p4305
F0.5
sS'next2degree'
p4306
I0
sS'pre1phone'
p4307
I0
sg90
g1962
sg92
I0
sS'pre2abstract'
p4308
I0
sS'next1intro'
p4309
I0
sS'next2intro'
p4310
I0
sS'pre3degree'
p4311
I0
sS'pre1author'
p4312
I0
sS'next3page'
p4313
I0
sS'next3web'
p4314
I0
sS'next4date'
p4315
I0
sg101
F0.0
sg102
F0.0
sg103
I0
sS'pre2author'
p4316
I0
sg105
I1
sS'next2page'
p4317
I0
sS'next3pubnum'
p4318
I0
sS'next1degree'
p4319
I0
sS'pre1date'
p4320
I0
sS'pre4phone'
p4321
I0
sg111
I0
sS'next4intro'
p4322
I0
sg113
F0.0
sS'next2affiliation'
p4323
I0
sS'next4author'
p4324
I0
sS'next4note'
p4325
I0
sS'pre1pubnum'
p4326
I0
sg118
I0
sg119
I0
sS'next2address'
p4327
F0.5
sS'next2keyword'
p4328
I0
sS'next3note'
p4329
F0.5
sS'next3affiliation'
p4330
I0
sS'pre4degree'
p4331
I0
sS'next4email'
p4332
F0.5
sg126
F0.0
sS'next1web'
p4333
I0
sS'next2email'
p4334
I0
sS'next2web'
p4335
I0
sg130
F0.0
sS'pre3page'
p4336
I0
sS'next3author'
p4337
I0
sS'pre1address'
p4338
I0
sS'pre2email'
p4339
I0
sS'next4web'
p4340
I0
sS'pre4author'
p4341
I0
sS'pre1title'
p4342
I0
sS'next4page'
p4343
I0
sg139
I0
sS'next4keyword'
p4344
I0
sg141
I0
sS'next1phone'
p4345
I0
sS'pre4intro'
p4346
I0
sS'pre3keyword'
p4347
I0
sS'pre2title'
p4348
I0
sS'pre3email'
p4349
I0
sS'pre4title'
p4350
I0
sS'next3date'
p4351
I0
sS'next2phone'
p4352
I0
sS'next1date'
p4353
I0
sg151
F0.0
sS'pre1intro'
p4354
I0
sS'pre2page'
p4355
I0
sS'next2abstract'
p4356
I0
sS'next4address'
p4357
I0
sS'next1title'
p4358
I0
sS'pre1page'
p4359
I0
sg158
I0
sg159
F1.0
sg160
I0
sa(dp4360
S'pre4pubnum'
p4361
I0
sS'next1page'
p4362
I0
sS'pre2keyword'
p4363
I0
sS'next3address'
p4364
I0
sS'pre3affiliation'
p4365
I0
sS'pre1email'
p4366
F0.5
sS'next3intro'
p4367
I0
sS'pre4page'
p4368
I0
sg10
I0
sg11
F1.0
sS'next4phone'
p4369
I0
sg13
S'"<web> http://www.cis.upenn.edu/~andre </web>::line_number::14"'
p4370
sg15
I0
sg16
I0
sS'next1author'
p4371
I0
sg18
F0.0
sg19
I0
sg20
F0.0
sg21
F0.0
sS'pre3note'
p4372
I0
sS'next3phone'
p4373
I0
sS'pre2note'
p4374
F0.5
sS'next1address'
p4375
I0
sS'pre1affiliation'
p4376
I0
sS'pre2address'
p4377
I0
sS'pre1abstract'
p4378
I0
sS'next3abstract'
p4379
I0
sS'pre2affiliation'
p4380
I0
sS'pre3title'
p4381
I0
sg32
I0
sS'pre3pubnum'
p4382
I0
sg34
I501
sS'pre3date'
p4383
I0
sS'next4title'
p4384
I0
sS'next3email'
p4385
I0
sg38
I0
sS'next1abstract'
p4386
I0
sS'pre2phone'
p4387
I0
sS'pre4affiliation'
p4388
F0.5
sS'pre2intro'
p4389
I0
sS'next2date'
p4390
I0
sS'pre3intro'
p4391
I0
sS'next2note'
p4392
I0
sS'next3title'
p4393
I0
sS'next3keyword'
p4394
I0
sS'pre2pubnum'
p4395
I0
sS'next4affiliation'
p4396
I0
sS'next2pubnum'
p4397
I0
sS'pre4note'
p4398
I0
sg52
I0
sg53
F0.0
sS'pre3web'
p4399
I0
sS'next4pubnum'
p4400
I0
sS'next4degree'
p4401
I0
sg57
I0
sS'pre3author'
p4402
I0
sS'pre4web'
p4403
I0
sS'next1note'
p4404
I0
sS'pre3abstract'
p4405
I0
sg62
F0.0
sS'pre1degree'
p4406
I0
sS'pre4abstract'
p4407
I0
sS'pre2degree'
p4408
I0
sS'next3degree'
p4409
I0
sS'next4abstract'
p4410
I0
sS'next1keyword'
p4411
I0
sS'pre3phone'
p4412
I0
sS'pre1note'
p4413
I0
sS'pre4keyword'
p4414
I0
sg72
I0
sS'pre4address'
p4415
I0
sS'pre2date'
p4416
I0
sS'next2title'
p4417
I0
sS'pre3address'
p4418
F0.5
sS'next1pubnum'
p4419
I0
sS'next2author'
p4420
I0
sS'pre2web'
p4421
I0
sS'next1email'
p4422
I0
sg81
S'web'
p4423
sS'pre1web'
p4424
I0
sS'pre4email'
p4425
I0
sS'pre1keyword'
p4426
I0
sS'pre4date'
p4427
I0
sS'next1affiliation'
p4428
F0.5
sS'next2degree'
p4429
I0
sS'pre1phone'
p4430
I0
sg90
S'14'
p4431
sg92
I0
sS'pre2abstract'
p4432
I0
sS'next1intro'
p4433
I0
sS'next2intro'
p4434
I0
sS'pre3degree'
p4435
I0
sS'pre1author'
p4436
I0
sS'next3page'
p4437
I0
sS'next3web'
p4438
I0
sS'next4date'
p4439
I0
sg101
F0.0
sg102
F0.0
sg103
I0
sS'pre2author'
p4440
I0
sg105
I1
sS'next2page'
p4441
I0
sS'next3pubnum'
p4442
I0
sS'next1degree'
p4443
I0
sS'pre1date'
p4444
I0
sS'pre4phone'
p4445
I0
sg111
I0
sS'next4intro'
p4446
I0
sg113
F0.0
sS'next2affiliation'
p4447
I0
sS'next4author'
p4448
I0
sS'next4note'
p4449
I0
sS'pre1pubnum'
p4450
I0
sg118
I0
sg119
I0
sS'next2address'
p4451
F0.5
sS'next2keyword'
p4452
I0
sS'next3note'
p4453
F0.5
sS'next3affiliation'
p4454
I0
sS'pre4degree'
p4455
I0
sS'next4email'
p4456
I0
sg126
F0.0
sS'next1web'
p4457
I0
sS'next2email'
p4458
I0
sS'next2web'
p4459
I0
sg130
F0.0
sS'pre3page'
p4460
I0
sS'next3author'
p4461
I0
sS'pre1address'
p4462
I0
sS'pre2email'
p4463
I0
sS'next4web'
p4464
I0
sS'pre4author'
p4465
I0
sS'pre1title'
p4466
I0
sS'next4page'
p4467
F0.5
sg139
I0
sS'next4keyword'
p4468
I0
sg141
I0
sS'next1phone'
p4469
I0
sS'pre4intro'
p4470
I0
sS'pre3keyword'
p4471
I0
sS'pre2title'
p4472
I0
sS'pre3email'
p4473
I0
sS'pre4title'
p4474
I0
sS'next3date'
p4475
I0
sS'next2phone'
p4476
I0
sS'next1date'
p4477
I0
sg151
F0.0
sS'pre1intro'
p4478
I0
sS'pre2page'
p4479
I0
sS'next2abstract'
p4480
I0
sS'next4address'
p4481
I0
sS'next1title'
p4482
I0
sS'pre1page'
p4483
I0
sg158
I0
sg159
F1.0
sg160
I0
sa(dp4484
S'pre4pubnum'
p4485
I0
sS'next1page'
p4486
I0
sS'pre2keyword'
p4487
I0
sS'next3address'
p4488
I0
sS'pre3affiliation'
p4489
I0
sS'pre1email'
p4490
F0.5
sS'next3intro'
p4491
I0
sS'pre4page'
p4492
I0
sg10
I0
sg11
F1.0
sS'next4phone'
p4493
I0
sg13
S'"<web> http://www.cs.cmu.edu/~khaigh http://www.cs.cmu.edu/~mmv  </web>::line_number::4"'
p4494
sg15
I0
sg16
I0
sS'next1author'
p4495
I0
sg18
F0.0
sg19
I0
sg20
F0.0
sg21
F0.0
sS'pre3note'
p4496
I0
sS'next3phone'
p4497
I0
sS'pre2note'
p4498
I0
sS'next1address'
p4499
I0
sS'pre1affiliation'
p4500
I0
sS'pre2address'
p4501
I0
sS'pre1abstract'
p4502
I0
sS'next3abstract'
p4503
F0.5
sS'pre2affiliation'
p4504
I0
sS'pre3title'
p4505
F0.5
sg32
I0
sS'pre3pubnum'
p4506
I0
sg34
I528
sS'pre3date'
p4507
I0
sS'next4title'
p4508
I0
sS'next3email'
p4509
I0
sg38
I0
sS'next1abstract'
p4510
I0
sS'pre2phone'
p4511
I0
sS'pre4affiliation'
p4512
I0
sS'pre2intro'
p4513
I0
sS'next2date'
p4514
I0
sS'pre3intro'
p4515
I0
sS'next2note'
p4516
I0
sS'next3title'
p4517
I0
sS'next3keyword'
p4518
I0
sS'pre2pubnum'
p4519
I0
sS'next4affiliation'
p4520
I0
sS'next2pubnum'
p4521
I0
sS'pre4note'
p4522
F0.5
sg52
I0
sg53
F0.0
sS'pre3web'
p4523
I0
sS'next4pubnum'
p4524
I0
sS'next4degree'
p4525
I0
sg57
I0
sS'pre3author'
p4526
I0
sS'pre4web'
p4527
I0
sS'next1note'
p4528
I0
sS'pre3abstract'
p4529
I0
sg62
F0.0
sS'pre1degree'
p4530
I0
sS'pre4abstract'
p4531
I0
sS'pre2degree'
p4532
I0
sS'next3degree'
p4533
I0
sS'next4abstract'
p4534
I0
sS'next1keyword'
p4535
I0
sS'pre3phone'
p4536
I0
sS'pre1note'
p4537
I0
sS'pre4keyword'
p4538
I0
sg72
I0
sS'pre4address'
p4539
I0
sS'pre2date'
p4540
I0
sS'next2title'
p4541
I0
sS'pre3address'
p4542
I0
sS'next1pubnum'
p4543
I0
sS'next2author'
p4544
I0
sS'pre2web'
p4545
I0
sS'next1email'
p4546
I0
sg81
S'web'
p4547
sS'pre1web'
p4548
I0
sS'pre4email'
p4549
I0
sS'pre1keyword'
p4550
I0
sS'pre4date'
p4551
I0
sS'next1affiliation'
p4552
F0.5
sS'next2degree'
p4553
I0
sS'pre1phone'
p4554
I0
sg90
g1219
sg92
I0
sS'pre2abstract'
p4555
I0
sS'next1intro'
p4556
I0
sS'next2intro'
p4557
I0
sS'pre3degree'
p4558
I0
sS'pre1author'
p4559
I0
sS'next3page'
p4560
I0
sS'next3web'
p4561
I0
sS'next4date'
p4562
I0
sg101
F0.0
sg102
F0.0
sg103
I0
sS'pre2author'
p4563
F0.5
sg105
I2
sS'next2page'
p4564
I0
sS'next3pubnum'
p4565
I0
sS'next1degree'
p4566
I0
sS'pre1date'
p4567
I0
sS'pre4phone'
p4568
I0
sg111
I0
sS'next4intro'
p4569
F0.5
sg113
F0.0
sS'next2affiliation'
p4570
I0
sS'next4author'
p4571
I0
sS'next4note'
p4572
I0
sS'pre1pubnum'
p4573
I0
sg118
I0
sg119
I0
sS'next2address'
p4574
F0.5
sS'next2keyword'
p4575
I0
sS'next3note'
p4576
I0
sS'next3affiliation'
p4577
I0
sS'pre4degree'
p4578
I0
sS'next4email'
p4579
I0
sg126
F0.0
sS'next1web'
p4580
I0
sS'next2email'
p4581
I0
sS'next2web'
p4582
I0
sg130
F0.0
sS'pre3page'
p4583
I0
sS'next3author'
p4584
I0
sS'pre1address'
p4585
I0
sS'pre2email'
p4586
I0
sS'next4web'
p4587
I0
sS'pre4author'
p4588
I0
sS'pre1title'
p4589
I0
sS'next4page'
p4590
I0
sg139
I0
sS'next4keyword'
p4591
I0
sg141
I0
sS'next1phone'
p4592
I0
sS'pre4intro'
p4593
I0
sS'pre3keyword'
p4594
I0
sS'pre2title'
p4595
I0
sS'pre3email'
p4596
I0
sS'pre4title'
p4597
I0
sS'next3date'
p4598
I0
sS'next2phone'
p4599
I0
sS'next1date'
p4600
I0
sg151
F0.0
sS'pre1intro'
p4601
I0
sS'pre2page'
p4602
I0
sS'next2abstract'
p4603
I0
sS'next4address'
p4604
I0
sS'next1title'
p4605
I0
sS'pre1page'
p4606
I0
sg158
I0
sg159
F1.0
sg160
I0
sa(dp4607
S'pre4pubnum'
p4608
I0
sS'next1page'
p4609
I0
sS'pre2keyword'
p4610
I0
sS'next3address'
p4611
I0
sS'pre3affiliation'
p4612
I0
sS'pre1email'
p4613
I0
sS'next3intro'
p4614
I0
sS'pre4page'
p4615
I0
sg10
I0
sg11
F0.5
sS'next4phone'
p4616
I0
sg13
S'"<web> http://www.cs.cmu.edu/ph, </web>::line_number::5"'
p4617
sg15
I0
sg16
I0
sS'next1author'
p4618
I0
sg18
F0.0
sg19
I0
sg20
F0.0
sg21
F0.0
sS'pre3note'
p4619
I0
sS'next3phone'
p4620
I0
sS'pre2note'
p4621
I0
sS'next1address'
p4622
I0
sS'pre1affiliation'
p4623
I0
sS'pre2address'
p4624
I0
sS'pre1abstract'
p4625
I0
sS'next3abstract'
p4626
I0
sS'pre2affiliation'
p4627
F0.5
sS'pre3title'
p4628
I0
sg32
I0
sS'pre3pubnum'
p4629
I0
sg34
I530
sS'pre3date'
p4630
I0
sS'next4title'
p4631
I0
sS'next3email'
p4632
I0
sg38
I0
sS'next1abstract'
p4633
I0
sS'pre2phone'
p4634
I0
sS'pre4affiliation'
p4635
I0
sS'pre2intro'
p4636
I0
sS'next2date'
p4637
I0
sS'pre3intro'
p4638
I0
sS'next2note'
p4639
I0
sS'next3title'
p4640
I0
sS'next3keyword'
p4641
I0
sS'pre2pubnum'
p4642
I0
sS'next4affiliation'
p4643
I0
sS'next2pubnum'
p4644
I0
sS'pre4note'
p4645
I0
sg52
I0
sg53
F0.0
sS'pre3web'
p4646
I0
sS'next4pubnum'
p4647
I0
sS'next4degree'
p4648
I0
sg57
I0
sS'pre3author'
p4649
I0
sS'pre4web'
p4650
I0
sS'next1note'
p4651
I0
sS'pre3abstract'
p4652
F0.5
sg62
F0.0
sS'pre1degree'
p4653
I0
sS'pre4abstract'
p4654
I0
sS'pre2degree'
p4655
I0
sS'next3degree'
p4656
I0
sS'next4abstract'
p4657
I0
sS'next1keyword'
p4658
I0
sS'pre3phone'
p4659
I0
sS'pre1note'
p4660
I0
sS'pre4keyword'
p4661
I0
sg72
I0
sS'pre4address'
p4662
I0
sS'pre2date'
p4663
I0
sS'next2title'
p4664
I0
sS'pre3address'
p4665
I0
sS'next1pubnum'
p4666
I0
sS'next2author'
p4667
I0
sS'pre2web'
p4668
I0
sS'next1email'
p4669
F0.5
sg81
S'web'
p4670
sS'pre1web'
p4671
I0
sS'pre4email'
p4672
I0
sS'pre1keyword'
p4673
I0
sS'pre4date'
p4674
I0
sS'next1affiliation'
p4675
I0
sS'next2degree'
p4676
I0
sS'pre1phone'
p4677
I0
sg90
g232
sg92
I0
sS'pre2abstract'
p4678
I0
sS'next1intro'
p4679
I0
sS'next2intro'
p4680
I0
sS'pre3degree'
p4681
I0
sS'pre1author'
p4682
I0
sS'next3page'
p4683
I0
sS'next3web'
p4684
I0
sS'next4date'
p4685
I0
sg101
F0.5
sg102
F0.0
sg103
I0
sS'pre2author'
p4686
I0
sg105
I1
sS'next2page'
p4687
F0.5
sS'next3pubnum'
p4688
I0
sS'next1degree'
p4689
I0
sS'pre1date'
p4690
I0
sS'pre4phone'
p4691
I0
sg111
I0
sS'next4intro'
p4692
I0
sg113
F0.0
sS'next2affiliation'
p4693
I0
sS'next4author'
p4694
I0
sS'next4note'
p4695
I0
sS'pre1pubnum'
p4696
I0
sg118
I0
sg119
I0
sS'next2address'
p4697
I0
sS'next2keyword'
p4698
I0
sS'next3note'
p4699
I0
sS'next3affiliation'
p4700
I0
sS'pre4degree'
p4701
I0
sS'next4email'
p4702
I0
sg126
F0.0
sS'next1web'
p4703
I0
sS'next2email'
p4704
I0
sS'next2web'
p4705
I0
sg130
F0.0
sS'pre3page'
p4706
I0
sS'next3author'
p4707
I0
sS'pre1address'
p4708
F0.5
sS'pre2email'
p4709
I0
sS'next4web'
p4710
I0
sS'pre4author'
p4711
F0.5
sS'pre1title'
p4712
I0
sS'next4page'
p4713
I0
sg139
I0
sS'next4keyword'
p4714
I0
sg141
I0
sS'next1phone'
p4715
I0
sS'pre4intro'
p4716
I0
sS'pre3keyword'
p4717
I0
sS'pre2title'
p4718
I0
sS'pre3email'
p4719
I0
sS'pre4title'
p4720
I0
sS'next3date'
p4721
I0
sS'next2phone'
p4722
I0
sS'next1date'
p4723
I0
sg151
F0.0
sS'pre1intro'
p4724
I0
sS'pre2page'
p4725
I0
sS'next2abstract'
p4726
I0
sS'next4address'
p4727
I0
sS'next1title'
p4728
I0
sS'pre1page'
p4729
I0
sg158
I0
sg159
F1.0
sg160
I0
sa(dp4730
S'pre4pubnum'
p4731
I0
sS'next1page'
p4732
I0
sS'pre2keyword'
p4733
I0
sS'next3address'
p4734
I0
sS'pre3affiliation'
p4735
F0.5
sS'pre1email'
p4736
F0.5
sS'next3intro'
p4737
I0
sS'pre4page'
p4738
I0
sg10
I0
sg11
F0.3333333333333333
sS'next4phone'
p4739
I0
sg13
S'"<web> URL: http://www.cs.cmu.edu/~ vsam  </web>::line_number::5"'
p4740
sg15
I0
sg16
I0
sS'next1author'
p4741
I0
sg18
F0.0
sg19
I0
sg20
F0.0
sg21
F0.0
sS'pre3note'
p4742
I0
sS'next3phone'
p4743
I0
sS'pre2note'
p4744
I0
sS'next1address'
p4745
I0
sS'pre1affiliation'
p4746
I0
sS'pre2address'
p4747
F0.5
sS'pre1abstract'
p4748
I0
sS'next3abstract'
p4749
I0
sS'pre2affiliation'
p4750
I0
sS'pre3title'
p4751
I0
sg32
I0
sS'pre3pubnum'
p4752
I0
sg34
I533
sS'pre3date'
p4753
I0
sS'next4title'
p4754
I0
sS'next3email'
p4755
I0
sg38
I0
sS'next1abstract'
p4756
F0.5
sS'pre2phone'
p4757
I0
sS'pre4affiliation'
p4758
I0
sS'pre2intro'
p4759
I0
sS'next2date'
p4760
I0
sS'pre3intro'
p4761
I0
sS'next2note'
p4762
I0
sS'next3title'
p4763
I0
sS'next3keyword'
p4764
I0
sS'pre2pubnum'
p4765
I0
sS'next4affiliation'
p4766
I0
sS'next2pubnum'
p4767
I0
sS'pre4note'
p4768
I0
sg52
I0
sg53
F0.0
sS'pre3web'
p4769
I0
sS'next4pubnum'
p4770
I0
sS'next4degree'
p4771
I0
sg57
I0
sS'pre3author'
p4772
I0
sS'pre4web'
p4773
I0
sS'next1note'
p4774
I0
sS'pre3abstract'
p4775
I0
sg62
F0.0
sS'pre1degree'
p4776
I0
sS'pre4abstract'
p4777
I0
sS'pre2degree'
p4778
I0
sS'next3degree'
p4779
I0
sS'next4abstract'
p4780
I0
sS'next1keyword'
p4781
I0
sS'pre3phone'
p4782
I0
sS'pre1note'
p4783
I0
sS'pre4keyword'
p4784
I0
sg72
I0
sS'pre4address'
p4785
I0
sS'pre2date'
p4786
I0
sS'next2title'
p4787
I0
sS'pre3address'
p4788
I0
sS'next1pubnum'
p4789
I0
sS'next2author'
p4790
I0
sS'pre2web'
p4791
I0
sS'next1email'
p4792
I0
sg81
S'web'
p4793
sS'pre1web'
p4794
I0
sS'pre4email'
p4795
I0
sS'pre1keyword'
p4796
I0
sS'pre4date'
p4797
I0
sS'next1affiliation'
p4798
I0
sS'next2degree'
p4799
I0
sS'pre1phone'
p4800
I0
sg90
g232
sg92
I0
sS'pre2abstract'
p4801
I0
sS'next1intro'
p4802
I0
sS'next2intro'
p4803
F0.5
sS'pre3degree'
p4804
I0
sS'pre1author'
p4805
I0
sS'next3page'
p4806
I0
sS'next3web'
p4807
I0
sS'next4date'
p4808
I0
sg101
F0.6666666666666667
sg102
F0.0
sg103
I0
sS'pre2author'
p4809
I0
sg105
I1
sS'next2page'
p4810
I0
sS'next3pubnum'
p4811
I0
sS'next1degree'
p4812
I0
sS'pre1date'
p4813
I0
sS'pre4phone'
p4814
I0
sg111
I0
sS'next4intro'
p4815
I0
sg113
F0.0
sS'next2affiliation'
p4816
I0
sS'next4author'
p4817
I0
sS'next4note'
p4818
I0
sS'pre1pubnum'
p4819
I0
sg118
I0
sg119
I0
sS'next2address'
p4820
I0
sS'next2keyword'
p4821
I0
sS'next3note'
p4822
I0
sS'next3affiliation'
p4823
I0
sS'pre4degree'
p4824
I0
sS'next4email'
p4825
I0
sg126
F0.0
sS'next1web'
p4826
I0
sS'next2email'
p4827
I0
sS'next2web'
p4828
I0
sg130
F0.0
sS'pre3page'
p4829
I0
sS'next3author'
p4830
I0
sS'pre1address'
p4831
I0
sS'pre2email'
p4832
I0
sS'next4web'
p4833
I0
sS'pre4author'
p4834
F0.5
sS'pre1title'
p4835
I0
sS'next4page'
p4836
I0
sg139
I0
sS'next4keyword'
p4837
I0
sg141
I0
sS'next1phone'
p4838
I0
sS'pre4intro'
p4839
I0
sS'pre3keyword'
p4840
I0
sS'pre2title'
p4841
I0
sS'pre3email'
p4842
I0
sS'pre4title'
p4843
I0
sS'next3date'
p4844
I0
sS'next2phone'
p4845
I0
sS'next1date'
p4846
I0
sg151
F0.0
sS'pre1intro'
p4847
I0
sS'pre2page'
p4848
I0
sS'next2abstract'
p4849
I0
sS'next4address'
p4850
I0
sS'next1title'
p4851
I0
sS'pre1page'
p4852
I0
sg158
I0
sg159
F1.0
sg160
I0
sa(dp4853
S'pre4pubnum'
p4854
F0.5
sS'next1page'
p4855
I0
sS'pre2keyword'
p4856
I0
sS'next3address'
p4857
I0
sS'pre3affiliation'
p4858
F0.5
sS'pre1email'
p4859
F0.5
sS'next3intro'
p4860
I0
sS'pre4page'
p4861
I0
sg10
I0
sg11
F0.25
sS'next4phone'
p4862
I0
sg13
S'"<web> World Wide Web: http://www.cs.cmu.edu/~ph  </web>::line_number::7"'
p4863
sg15
I0
sg16
I0
sS'next1author'
p4864
I0
sg18
F0.0
sg19
I0
sg20
F0.0
sg21
F0.0
sS'pre3note'
p4865
I0
sS'next3phone'
p4866
I0
sS'pre2note'
p4867
I0
sS'next1address'
p4868
I0
sS'pre1affiliation'
p4869
I0
sS'pre2address'
p4870
F0.5
sS'pre1abstract'
p4871
I0
sS'next3abstract'
p4872
I0
sS'pre2affiliation'
p4873
I0
sS'pre3title'
p4874
I0
sg32
I0
sS'pre3pubnum'
p4875
I0
sg34
I554
sS'pre3date'
p4876
I0
sS'next4title'
p4877
I0
sS'next3email'
p4878
I0
sg38
I0
sS'next1abstract'
p4879
I0
sS'pre2phone'
p4880
I0
sS'pre4affiliation'
p4881
I0
sS'pre2intro'
p4882
I0
sS'next2date'
p4883
I0
sS'pre3intro'
p4884
I0
sS'next2note'
p4885
I0
sS'next3title'
p4886
I0
sS'next3keyword'
p4887
I0
sS'pre2pubnum'
p4888
I0
sS'next4affiliation'
p4889
I0
sS'next2pubnum'
p4890
I0
sS'pre4note'
p4891
I0
sg52
I0
sg53
F0.0
sS'pre3web'
p4892
I0
sS'next4pubnum'
p4893
I0
sS'next4degree'
p4894
I0
sg57
I0
sS'pre3author'
p4895
I0
sS'pre4web'
p4896
I0
sS'next1note'
p4897
F0.5
sS'pre3abstract'
p4898
I0
sg62
F0.0
sS'pre1degree'
p4899
I0
sS'pre4abstract'
p4900
I0
sS'pre2degree'
p4901
I0
sS'next3degree'
p4902
I0
sS'next4abstract'
p4903
I0
sS'next1keyword'
p4904
I0
sS'pre3phone'
p4905
I0
sS'pre1note'
p4906
I0
sS'pre4keyword'
p4907
I0
sg72
I0
sS'pre4address'
p4908
I0
sS'pre2date'
p4909
I0
sS'next2title'
p4910
I0
sS'pre3address'
p4911
I0
sS'next1pubnum'
p4912
I0
sS'next2author'
p4913
I0
sS'pre2web'
p4914
I0
sS'next1email'
p4915
I0
sg81
S'web'
p4916
sS'pre1web'
p4917
I0
sS'pre4email'
p4918
I0
sS'pre1keyword'
p4919
I0
sS'pre4date'
p4920
I0
sS'next1affiliation'
p4921
I0
sS'next2degree'
p4922
I0
sS'pre1phone'
p4923
I0
sg90
g1715
sg92
I0
sS'pre2abstract'
p4924
I0
sS'next1intro'
p4925
I0
sS'next2intro'
p4926
I0
sS'pre3degree'
p4927
I0
sS'pre1author'
p4928
I0
sS'next3page'
p4929
I0
sS'next3web'
p4930
I0
sS'next4date'
p4931
I0
sg101
F0.75
sg102
F0.0
sg103
I0
sS'pre2author'
p4932
I0
sg105
I1
sS'next2page'
p4933
I0
sS'next3pubnum'
p4934
I0
sS'next1degree'
p4935
I0
sS'pre1date'
p4936
I0
sS'pre4phone'
p4937
I0
sg111
I0
sS'next4intro'
p4938
I0
sg113
F0.0
sS'next2affiliation'
p4939
I0
sS'next4author'
p4940
I0
sS'next4note'
p4941
I0
sS'pre1pubnum'
p4942
I0
sg118
I0
sg119
I0
sS'next2address'
p4943
I0
sS'next2keyword'
p4944
I0
sS'next3note'
p4945
F0.5
sS'next3affiliation'
p4946
I0
sS'pre4degree'
p4947
I0
sS'next4email'
p4948
I0
sg126
F0.0
sS'next1web'
p4949
I0
sS'next2email'
p4950
I0
sS'next2web'
p4951
I0
sg130
F0.0
sS'pre3page'
p4952
I0
sS'next3author'
p4953
I0
sS'pre1address'
p4954
I0
sS'pre2email'
p4955
I0
sS'next4web'
p4956
I0
sS'pre4author'
p4957
I0
sS'pre1title'
p4958
I0
sS'next4page'
p4959
F0.5
sg139
I0
sS'next4keyword'
p4960
I0
sg141
I0
sS'next1phone'
p4961
I0
sS'pre4intro'
p4962
I0
sS'pre3keyword'
p4963
I0
sS'pre2title'
p4964
I0
sS'pre3email'
p4965
I0
sS'pre4title'
p4966
I0
sS'next3date'
p4967
I0
sS'next2phone'
p4968
I0
sS'next1date'
p4969
I0
sg151
F0.0
sS'pre1intro'
p4970
I0
sS'pre2page'
p4971
I0
sS'next2abstract'
p4972
F0.5
sS'next4address'
p4973
I0
sS'next1title'
p4974
I0
sS'pre1page'
p4975
I0
sg158
I0
sg159
F1.0
sg160
I0
sa.